
NUCELO-L412.elf:     file format elf32-littlearm

Sections:
Idx Name          Size      VMA       LMA       File off  Algn
  0 .isr_vector   0000018c  08000000  08000000  00010000  2**0
                  CONTENTS, ALLOC, LOAD, READONLY, DATA
  1 .text         00002734  0800018c  0800018c  0001018c  2**2
                  CONTENTS, ALLOC, LOAD, READONLY, CODE
  2 .rodata       00000048  080028c0  080028c0  000128c0  2**2
                  CONTENTS, ALLOC, LOAD, READONLY, DATA
  3 .ARM.extab    00000000  08002908  08002908  0002000c  2**0
                  CONTENTS
  4 .ARM          00000008  08002908  08002908  00012908  2**2
                  CONTENTS, ALLOC, LOAD, READONLY, DATA
  5 .preinit_array 00000000  08002910  08002910  0002000c  2**0
                  CONTENTS, ALLOC, LOAD, DATA
  6 .init_array   00000004  08002910  08002910  00012910  2**2
                  CONTENTS, ALLOC, LOAD, DATA
  7 .fini_array   00000004  08002914  08002914  00012914  2**2
                  CONTENTS, ALLOC, LOAD, DATA
  8 .data         0000000c  20000000  08002918  00020000  2**2
                  CONTENTS, ALLOC, LOAD, DATA
  9 .bss          000000a4  2000000c  08002924  0002000c  2**2
                  ALLOC
 10 ._user_heap_stack 00000600  200000b0  08002924  000200b0  2**0
                  ALLOC
 11 .ARM.attributes 00000030  00000000  00000000  0002000c  2**0
                  CONTENTS, READONLY
 12 .debug_info   00009f67  00000000  00000000  0002003c  2**0
                  CONTENTS, READONLY, DEBUGGING, OCTETS
 13 .debug_abbrev 00001850  00000000  00000000  00029fa3  2**0
                  CONTENTS, READONLY, DEBUGGING, OCTETS
 14 .debug_aranges 00000898  00000000  00000000  0002b7f8  2**3
                  CONTENTS, READONLY, DEBUGGING, OCTETS
 15 .debug_ranges 000007f0  00000000  00000000  0002c090  2**3
                  CONTENTS, READONLY, DEBUGGING, OCTETS
 16 .debug_macro  00018e31  00000000  00000000  0002c880  2**0
                  CONTENTS, READONLY, DEBUGGING, OCTETS
 17 .debug_line   0000a9b9  00000000  00000000  000456b1  2**0
                  CONTENTS, READONLY, DEBUGGING, OCTETS
 18 .debug_str    0009c7d6  00000000  00000000  0005006a  2**0
                  CONTENTS, READONLY, DEBUGGING, OCTETS
 19 .comment      00000050  00000000  00000000  000ec840  2**0
                  CONTENTS, READONLY
 20 .debug_frame  00002180  00000000  00000000  000ec890  2**2
                  CONTENTS, READONLY, DEBUGGING, OCTETS

Disassembly of section .text:

0800018c <__do_global_dtors_aux>:
 800018c:	b510      	push	{r4, lr}
 800018e:	4c05      	ldr	r4, [pc, #20]	; (80001a4 <__do_global_dtors_aux+0x18>)
 8000190:	7823      	ldrb	r3, [r4, #0]
 8000192:	b933      	cbnz	r3, 80001a2 <__do_global_dtors_aux+0x16>
 8000194:	4b04      	ldr	r3, [pc, #16]	; (80001a8 <__do_global_dtors_aux+0x1c>)
 8000196:	b113      	cbz	r3, 800019e <__do_global_dtors_aux+0x12>
 8000198:	4804      	ldr	r0, [pc, #16]	; (80001ac <__do_global_dtors_aux+0x20>)
 800019a:	f3af 8000 	nop.w
 800019e:	2301      	movs	r3, #1
 80001a0:	7023      	strb	r3, [r4, #0]
 80001a2:	bd10      	pop	{r4, pc}
 80001a4:	2000000c 	.word	0x2000000c
 80001a8:	00000000 	.word	0x00000000
 80001ac:	080028a8 	.word	0x080028a8

080001b0 <frame_dummy>:
 80001b0:	b508      	push	{r3, lr}
 80001b2:	4b03      	ldr	r3, [pc, #12]	; (80001c0 <frame_dummy+0x10>)
 80001b4:	b11b      	cbz	r3, 80001be <frame_dummy+0xe>
 80001b6:	4903      	ldr	r1, [pc, #12]	; (80001c4 <frame_dummy+0x14>)
 80001b8:	4803      	ldr	r0, [pc, #12]	; (80001c8 <frame_dummy+0x18>)
 80001ba:	f3af 8000 	nop.w
 80001be:	bd08      	pop	{r3, pc}
 80001c0:	00000000 	.word	0x00000000
 80001c4:	20000010 	.word	0x20000010
 80001c8:	080028a8 	.word	0x080028a8

080001cc <__aeabi_uldivmod>:
 80001cc:	b953      	cbnz	r3, 80001e4 <__aeabi_uldivmod+0x18>
 80001ce:	b94a      	cbnz	r2, 80001e4 <__aeabi_uldivmod+0x18>
 80001d0:	2900      	cmp	r1, #0
 80001d2:	bf08      	it	eq
 80001d4:	2800      	cmpeq	r0, #0
 80001d6:	bf1c      	itt	ne
 80001d8:	f04f 31ff 	movne.w	r1, #4294967295
 80001dc:	f04f 30ff 	movne.w	r0, #4294967295
 80001e0:	f000 b974 	b.w	80004cc <__aeabi_idiv0>
 80001e4:	f1ad 0c08 	sub.w	ip, sp, #8
 80001e8:	e96d ce04 	strd	ip, lr, [sp, #-16]!
 80001ec:	f000 f806 	bl	80001fc <__udivmoddi4>
 80001f0:	f8dd e004 	ldr.w	lr, [sp, #4]
 80001f4:	e9dd 2302 	ldrd	r2, r3, [sp, #8]
 80001f8:	b004      	add	sp, #16
 80001fa:	4770      	bx	lr

080001fc <__udivmoddi4>:
 80001fc:	e92d 47f0 	stmdb	sp!, {r4, r5, r6, r7, r8, r9, sl, lr}
 8000200:	9d08      	ldr	r5, [sp, #32]
 8000202:	4604      	mov	r4, r0
 8000204:	468e      	mov	lr, r1
 8000206:	2b00      	cmp	r3, #0
 8000208:	d14d      	bne.n	80002a6 <__udivmoddi4+0xaa>
 800020a:	428a      	cmp	r2, r1
 800020c:	4694      	mov	ip, r2
 800020e:	d969      	bls.n	80002e4 <__udivmoddi4+0xe8>
 8000210:	fab2 f282 	clz	r2, r2
 8000214:	b152      	cbz	r2, 800022c <__udivmoddi4+0x30>
 8000216:	fa01 f302 	lsl.w	r3, r1, r2
 800021a:	f1c2 0120 	rsb	r1, r2, #32
 800021e:	fa20 f101 	lsr.w	r1, r0, r1
 8000222:	fa0c fc02 	lsl.w	ip, ip, r2
 8000226:	ea41 0e03 	orr.w	lr, r1, r3
 800022a:	4094      	lsls	r4, r2
 800022c:	ea4f 481c 	mov.w	r8, ip, lsr #16
 8000230:	0c21      	lsrs	r1, r4, #16
 8000232:	fbbe f6f8 	udiv	r6, lr, r8
 8000236:	fa1f f78c 	uxth.w	r7, ip
 800023a:	fb08 e316 	mls	r3, r8, r6, lr
 800023e:	ea41 4303 	orr.w	r3, r1, r3, lsl #16
 8000242:	fb06 f107 	mul.w	r1, r6, r7
 8000246:	4299      	cmp	r1, r3
 8000248:	d90a      	bls.n	8000260 <__udivmoddi4+0x64>
 800024a:	eb1c 0303 	adds.w	r3, ip, r3
 800024e:	f106 30ff 	add.w	r0, r6, #4294967295
 8000252:	f080 811f 	bcs.w	8000494 <__udivmoddi4+0x298>
 8000256:	4299      	cmp	r1, r3
 8000258:	f240 811c 	bls.w	8000494 <__udivmoddi4+0x298>
 800025c:	3e02      	subs	r6, #2
 800025e:	4463      	add	r3, ip
 8000260:	1a5b      	subs	r3, r3, r1
 8000262:	b2a4      	uxth	r4, r4
 8000264:	fbb3 f0f8 	udiv	r0, r3, r8
 8000268:	fb08 3310 	mls	r3, r8, r0, r3
 800026c:	ea44 4403 	orr.w	r4, r4, r3, lsl #16
 8000270:	fb00 f707 	mul.w	r7, r0, r7
 8000274:	42a7      	cmp	r7, r4
 8000276:	d90a      	bls.n	800028e <__udivmoddi4+0x92>
 8000278:	eb1c 0404 	adds.w	r4, ip, r4
 800027c:	f100 33ff 	add.w	r3, r0, #4294967295
 8000280:	f080 810a 	bcs.w	8000498 <__udivmoddi4+0x29c>
 8000284:	42a7      	cmp	r7, r4
 8000286:	f240 8107 	bls.w	8000498 <__udivmoddi4+0x29c>
 800028a:	4464      	add	r4, ip
 800028c:	3802      	subs	r0, #2
 800028e:	ea40 4006 	orr.w	r0, r0, r6, lsl #16
 8000292:	1be4      	subs	r4, r4, r7
 8000294:	2600      	movs	r6, #0
 8000296:	b11d      	cbz	r5, 80002a0 <__udivmoddi4+0xa4>
 8000298:	40d4      	lsrs	r4, r2
 800029a:	2300      	movs	r3, #0
 800029c:	e9c5 4300 	strd	r4, r3, [r5]
 80002a0:	4631      	mov	r1, r6
 80002a2:	e8bd 87f0 	ldmia.w	sp!, {r4, r5, r6, r7, r8, r9, sl, pc}
 80002a6:	428b      	cmp	r3, r1
 80002a8:	d909      	bls.n	80002be <__udivmoddi4+0xc2>
 80002aa:	2d00      	cmp	r5, #0
 80002ac:	f000 80ef 	beq.w	800048e <__udivmoddi4+0x292>
 80002b0:	2600      	movs	r6, #0
 80002b2:	e9c5 0100 	strd	r0, r1, [r5]
 80002b6:	4630      	mov	r0, r6
 80002b8:	4631      	mov	r1, r6
 80002ba:	e8bd 87f0 	ldmia.w	sp!, {r4, r5, r6, r7, r8, r9, sl, pc}
 80002be:	fab3 f683 	clz	r6, r3
 80002c2:	2e00      	cmp	r6, #0
 80002c4:	d14a      	bne.n	800035c <__udivmoddi4+0x160>
 80002c6:	428b      	cmp	r3, r1
 80002c8:	d302      	bcc.n	80002d0 <__udivmoddi4+0xd4>
 80002ca:	4282      	cmp	r2, r0
 80002cc:	f200 80f9 	bhi.w	80004c2 <__udivmoddi4+0x2c6>
 80002d0:	1a84      	subs	r4, r0, r2
 80002d2:	eb61 0303 	sbc.w	r3, r1, r3
 80002d6:	2001      	movs	r0, #1
 80002d8:	469e      	mov	lr, r3
 80002da:	2d00      	cmp	r5, #0
 80002dc:	d0e0      	beq.n	80002a0 <__udivmoddi4+0xa4>
 80002de:	e9c5 4e00 	strd	r4, lr, [r5]
 80002e2:	e7dd      	b.n	80002a0 <__udivmoddi4+0xa4>
 80002e4:	b902      	cbnz	r2, 80002e8 <__udivmoddi4+0xec>
 80002e6:	deff      	udf	#255	; 0xff
 80002e8:	fab2 f282 	clz	r2, r2
 80002ec:	2a00      	cmp	r2, #0
 80002ee:	f040 8092 	bne.w	8000416 <__udivmoddi4+0x21a>
 80002f2:	eba1 010c 	sub.w	r1, r1, ip
 80002f6:	ea4f 471c 	mov.w	r7, ip, lsr #16
 80002fa:	fa1f fe8c 	uxth.w	lr, ip
 80002fe:	2601      	movs	r6, #1
 8000300:	0c20      	lsrs	r0, r4, #16
 8000302:	fbb1 f3f7 	udiv	r3, r1, r7
 8000306:	fb07 1113 	mls	r1, r7, r3, r1
 800030a:	ea40 4101 	orr.w	r1, r0, r1, lsl #16
 800030e:	fb0e f003 	mul.w	r0, lr, r3
 8000312:	4288      	cmp	r0, r1
 8000314:	d908      	bls.n	8000328 <__udivmoddi4+0x12c>
 8000316:	eb1c 0101 	adds.w	r1, ip, r1
 800031a:	f103 38ff 	add.w	r8, r3, #4294967295
 800031e:	d202      	bcs.n	8000326 <__udivmoddi4+0x12a>
 8000320:	4288      	cmp	r0, r1
 8000322:	f200 80cb 	bhi.w	80004bc <__udivmoddi4+0x2c0>
 8000326:	4643      	mov	r3, r8
 8000328:	1a09      	subs	r1, r1, r0
 800032a:	b2a4      	uxth	r4, r4
 800032c:	fbb1 f0f7 	udiv	r0, r1, r7
 8000330:	fb07 1110 	mls	r1, r7, r0, r1
 8000334:	ea44 4401 	orr.w	r4, r4, r1, lsl #16
 8000338:	fb0e fe00 	mul.w	lr, lr, r0
 800033c:	45a6      	cmp	lr, r4
 800033e:	d908      	bls.n	8000352 <__udivmoddi4+0x156>
 8000340:	eb1c 0404 	adds.w	r4, ip, r4
 8000344:	f100 31ff 	add.w	r1, r0, #4294967295
 8000348:	d202      	bcs.n	8000350 <__udivmoddi4+0x154>
 800034a:	45a6      	cmp	lr, r4
 800034c:	f200 80bb 	bhi.w	80004c6 <__udivmoddi4+0x2ca>
 8000350:	4608      	mov	r0, r1
 8000352:	eba4 040e 	sub.w	r4, r4, lr
 8000356:	ea40 4003 	orr.w	r0, r0, r3, lsl #16
 800035a:	e79c      	b.n	8000296 <__udivmoddi4+0x9a>
 800035c:	f1c6 0720 	rsb	r7, r6, #32
 8000360:	40b3      	lsls	r3, r6
 8000362:	fa22 fc07 	lsr.w	ip, r2, r7
 8000366:	ea4c 0c03 	orr.w	ip, ip, r3
 800036a:	fa20 f407 	lsr.w	r4, r0, r7
 800036e:	fa01 f306 	lsl.w	r3, r1, r6
 8000372:	431c      	orrs	r4, r3
 8000374:	40f9      	lsrs	r1, r7
 8000376:	ea4f 491c 	mov.w	r9, ip, lsr #16
 800037a:	fa00 f306 	lsl.w	r3, r0, r6
 800037e:	fbb1 f8f9 	udiv	r8, r1, r9
 8000382:	0c20      	lsrs	r0, r4, #16
 8000384:	fa1f fe8c 	uxth.w	lr, ip
 8000388:	fb09 1118 	mls	r1, r9, r8, r1
 800038c:	ea40 4101 	orr.w	r1, r0, r1, lsl #16
 8000390:	fb08 f00e 	mul.w	r0, r8, lr
 8000394:	4288      	cmp	r0, r1
 8000396:	fa02 f206 	lsl.w	r2, r2, r6
 800039a:	d90b      	bls.n	80003b4 <__udivmoddi4+0x1b8>
 800039c:	eb1c 0101 	adds.w	r1, ip, r1
 80003a0:	f108 3aff 	add.w	sl, r8, #4294967295
 80003a4:	f080 8088 	bcs.w	80004b8 <__udivmoddi4+0x2bc>
 80003a8:	4288      	cmp	r0, r1
 80003aa:	f240 8085 	bls.w	80004b8 <__udivmoddi4+0x2bc>
 80003ae:	f1a8 0802 	sub.w	r8, r8, #2
 80003b2:	4461      	add	r1, ip
 80003b4:	1a09      	subs	r1, r1, r0
 80003b6:	b2a4      	uxth	r4, r4
 80003b8:	fbb1 f0f9 	udiv	r0, r1, r9
 80003bc:	fb09 1110 	mls	r1, r9, r0, r1
 80003c0:	ea44 4101 	orr.w	r1, r4, r1, lsl #16
 80003c4:	fb00 fe0e 	mul.w	lr, r0, lr
 80003c8:	458e      	cmp	lr, r1
 80003ca:	d908      	bls.n	80003de <__udivmoddi4+0x1e2>
 80003cc:	eb1c 0101 	adds.w	r1, ip, r1
 80003d0:	f100 34ff 	add.w	r4, r0, #4294967295
 80003d4:	d26c      	bcs.n	80004b0 <__udivmoddi4+0x2b4>
 80003d6:	458e      	cmp	lr, r1
 80003d8:	d96a      	bls.n	80004b0 <__udivmoddi4+0x2b4>
 80003da:	3802      	subs	r0, #2
 80003dc:	4461      	add	r1, ip
 80003de:	ea40 4008 	orr.w	r0, r0, r8, lsl #16
 80003e2:	fba0 9402 	umull	r9, r4, r0, r2
 80003e6:	eba1 010e 	sub.w	r1, r1, lr
 80003ea:	42a1      	cmp	r1, r4
 80003ec:	46c8      	mov	r8, r9
 80003ee:	46a6      	mov	lr, r4
 80003f0:	d356      	bcc.n	80004a0 <__udivmoddi4+0x2a4>
 80003f2:	d053      	beq.n	800049c <__udivmoddi4+0x2a0>
 80003f4:	b15d      	cbz	r5, 800040e <__udivmoddi4+0x212>
 80003f6:	ebb3 0208 	subs.w	r2, r3, r8
 80003fa:	eb61 010e 	sbc.w	r1, r1, lr
 80003fe:	fa01 f707 	lsl.w	r7, r1, r7
 8000402:	fa22 f306 	lsr.w	r3, r2, r6
 8000406:	40f1      	lsrs	r1, r6
 8000408:	431f      	orrs	r7, r3
 800040a:	e9c5 7100 	strd	r7, r1, [r5]
 800040e:	2600      	movs	r6, #0
 8000410:	4631      	mov	r1, r6
 8000412:	e8bd 87f0 	ldmia.w	sp!, {r4, r5, r6, r7, r8, r9, sl, pc}
 8000416:	f1c2 0320 	rsb	r3, r2, #32
 800041a:	40d8      	lsrs	r0, r3
 800041c:	fa0c fc02 	lsl.w	ip, ip, r2
 8000420:	fa21 f303 	lsr.w	r3, r1, r3
 8000424:	4091      	lsls	r1, r2
 8000426:	4301      	orrs	r1, r0
 8000428:	ea4f 471c 	mov.w	r7, ip, lsr #16
 800042c:	fa1f fe8c 	uxth.w	lr, ip
 8000430:	fbb3 f0f7 	udiv	r0, r3, r7
 8000434:	fb07 3610 	mls	r6, r7, r0, r3
 8000438:	0c0b      	lsrs	r3, r1, #16
 800043a:	ea43 4306 	orr.w	r3, r3, r6, lsl #16
 800043e:	fb00 f60e 	mul.w	r6, r0, lr
 8000442:	429e      	cmp	r6, r3
 8000444:	fa04 f402 	lsl.w	r4, r4, r2
 8000448:	d908      	bls.n	800045c <__udivmoddi4+0x260>
 800044a:	eb1c 0303 	adds.w	r3, ip, r3
 800044e:	f100 38ff 	add.w	r8, r0, #4294967295
 8000452:	d22f      	bcs.n	80004b4 <__udivmoddi4+0x2b8>
 8000454:	429e      	cmp	r6, r3
 8000456:	d92d      	bls.n	80004b4 <__udivmoddi4+0x2b8>
 8000458:	3802      	subs	r0, #2
 800045a:	4463      	add	r3, ip
 800045c:	1b9b      	subs	r3, r3, r6
 800045e:	b289      	uxth	r1, r1
 8000460:	fbb3 f6f7 	udiv	r6, r3, r7
 8000464:	fb07 3316 	mls	r3, r7, r6, r3
 8000468:	ea41 4103 	orr.w	r1, r1, r3, lsl #16
 800046c:	fb06 f30e 	mul.w	r3, r6, lr
 8000470:	428b      	cmp	r3, r1
 8000472:	d908      	bls.n	8000486 <__udivmoddi4+0x28a>
 8000474:	eb1c 0101 	adds.w	r1, ip, r1
 8000478:	f106 38ff 	add.w	r8, r6, #4294967295
 800047c:	d216      	bcs.n	80004ac <__udivmoddi4+0x2b0>
 800047e:	428b      	cmp	r3, r1
 8000480:	d914      	bls.n	80004ac <__udivmoddi4+0x2b0>
 8000482:	3e02      	subs	r6, #2
 8000484:	4461      	add	r1, ip
 8000486:	1ac9      	subs	r1, r1, r3
 8000488:	ea46 4600 	orr.w	r6, r6, r0, lsl #16
 800048c:	e738      	b.n	8000300 <__udivmoddi4+0x104>
 800048e:	462e      	mov	r6, r5
 8000490:	4628      	mov	r0, r5
 8000492:	e705      	b.n	80002a0 <__udivmoddi4+0xa4>
 8000494:	4606      	mov	r6, r0
 8000496:	e6e3      	b.n	8000260 <__udivmoddi4+0x64>
 8000498:	4618      	mov	r0, r3
 800049a:	e6f8      	b.n	800028e <__udivmoddi4+0x92>
 800049c:	454b      	cmp	r3, r9
 800049e:	d2a9      	bcs.n	80003f4 <__udivmoddi4+0x1f8>
 80004a0:	ebb9 0802 	subs.w	r8, r9, r2
 80004a4:	eb64 0e0c 	sbc.w	lr, r4, ip
 80004a8:	3801      	subs	r0, #1
 80004aa:	e7a3      	b.n	80003f4 <__udivmoddi4+0x1f8>
 80004ac:	4646      	mov	r6, r8
 80004ae:	e7ea      	b.n	8000486 <__udivmoddi4+0x28a>
 80004b0:	4620      	mov	r0, r4
 80004b2:	e794      	b.n	80003de <__udivmoddi4+0x1e2>
 80004b4:	4640      	mov	r0, r8
 80004b6:	e7d1      	b.n	800045c <__udivmoddi4+0x260>
 80004b8:	46d0      	mov	r8, sl
 80004ba:	e77b      	b.n	80003b4 <__udivmoddi4+0x1b8>
 80004bc:	3b02      	subs	r3, #2
 80004be:	4461      	add	r1, ip
 80004c0:	e732      	b.n	8000328 <__udivmoddi4+0x12c>
 80004c2:	4630      	mov	r0, r6
 80004c4:	e709      	b.n	80002da <__udivmoddi4+0xde>
 80004c6:	4464      	add	r4, ip
 80004c8:	3802      	subs	r0, #2
 80004ca:	e742      	b.n	8000352 <__udivmoddi4+0x156>

080004cc <__aeabi_idiv0>:
 80004cc:	4770      	bx	lr
 80004ce:	bf00      	nop

080004d0 <MX_GPIO_Init>:
        * Output
        * EVENT_OUT
        * EXTI
*/
void MX_GPIO_Init(void)
{
 80004d0:	b580      	push	{r7, lr}
 80004d2:	b088      	sub	sp, #32
 80004d4:	af00      	add	r7, sp, #0

  GPIO_InitTypeDef GPIO_InitStruct = {0};
 80004d6:	f107 030c 	add.w	r3, r7, #12
 80004da:	2200      	movs	r2, #0
 80004dc:	601a      	str	r2, [r3, #0]
 80004de:	605a      	str	r2, [r3, #4]
 80004e0:	609a      	str	r2, [r3, #8]
 80004e2:	60da      	str	r2, [r3, #12]
 80004e4:	611a      	str	r2, [r3, #16]

  /* GPIO Ports Clock Enable */
  __HAL_RCC_GPIOC_CLK_ENABLE();
 80004e6:	4b1d      	ldr	r3, [pc, #116]	; (800055c <MX_GPIO_Init+0x8c>)
 80004e8:	6cdb      	ldr	r3, [r3, #76]	; 0x4c
 80004ea:	4a1c      	ldr	r2, [pc, #112]	; (800055c <MX_GPIO_Init+0x8c>)
 80004ec:	f043 0304 	orr.w	r3, r3, #4
 80004f0:	64d3      	str	r3, [r2, #76]	; 0x4c
 80004f2:	4b1a      	ldr	r3, [pc, #104]	; (800055c <MX_GPIO_Init+0x8c>)
 80004f4:	6cdb      	ldr	r3, [r3, #76]	; 0x4c
 80004f6:	f003 0304 	and.w	r3, r3, #4
 80004fa:	60bb      	str	r3, [r7, #8]
 80004fc:	68bb      	ldr	r3, [r7, #8]
  __HAL_RCC_GPIOA_CLK_ENABLE();
 80004fe:	4b17      	ldr	r3, [pc, #92]	; (800055c <MX_GPIO_Init+0x8c>)
 8000500:	6cdb      	ldr	r3, [r3, #76]	; 0x4c
 8000502:	4a16      	ldr	r2, [pc, #88]	; (800055c <MX_GPIO_Init+0x8c>)
 8000504:	f043 0301 	orr.w	r3, r3, #1
 8000508:	64d3      	str	r3, [r2, #76]	; 0x4c
 800050a:	4b14      	ldr	r3, [pc, #80]	; (800055c <MX_GPIO_Init+0x8c>)
 800050c:	6cdb      	ldr	r3, [r3, #76]	; 0x4c
 800050e:	f003 0301 	and.w	r3, r3, #1
 8000512:	607b      	str	r3, [r7, #4]
 8000514:	687b      	ldr	r3, [r7, #4]
  __HAL_RCC_GPIOB_CLK_ENABLE();
 8000516:	4b11      	ldr	r3, [pc, #68]	; (800055c <MX_GPIO_Init+0x8c>)
 8000518:	6cdb      	ldr	r3, [r3, #76]	; 0x4c
 800051a:	4a10      	ldr	r2, [pc, #64]	; (800055c <MX_GPIO_Init+0x8c>)
 800051c:	f043 0302 	orr.w	r3, r3, #2
 8000520:	64d3      	str	r3, [r2, #76]	; 0x4c
 8000522:	4b0e      	ldr	r3, [pc, #56]	; (800055c <MX_GPIO_Init+0x8c>)
 8000524:	6cdb      	ldr	r3, [r3, #76]	; 0x4c
 8000526:	f003 0302 	and.w	r3, r3, #2
 800052a:	603b      	str	r3, [r7, #0]
 800052c:	683b      	ldr	r3, [r7, #0]

  /*Configure GPIO pin Output Level */
  HAL_GPIO_WritePin(LD3_GPIO_Port, LD3_Pin, GPIO_PIN_RESET);
 800052e:	2200      	movs	r2, #0
 8000530:	2108      	movs	r1, #8
 8000532:	480b      	ldr	r0, [pc, #44]	; (8000560 <MX_GPIO_Init+0x90>)
 8000534:	f000 fc92 	bl	8000e5c <HAL_GPIO_WritePin>

  /*Configure GPIO pin : PtPin */
  GPIO_InitStruct.Pin = LD3_Pin;
 8000538:	2308      	movs	r3, #8
 800053a:	60fb      	str	r3, [r7, #12]
  GPIO_InitStruct.Mode = GPIO_MODE_OUTPUT_PP;
 800053c:	2301      	movs	r3, #1
 800053e:	613b      	str	r3, [r7, #16]
  GPIO_InitStruct.Pull = GPIO_NOPULL;
 8000540:	2300      	movs	r3, #0
 8000542:	617b      	str	r3, [r7, #20]
  GPIO_InitStruct.Speed = GPIO_SPEED_FREQ_LOW;
 8000544:	2300      	movs	r3, #0
 8000546:	61bb      	str	r3, [r7, #24]
  HAL_GPIO_Init(LD3_GPIO_Port, &GPIO_InitStruct);
 8000548:	f107 030c 	add.w	r3, r7, #12
 800054c:	4619      	mov	r1, r3
 800054e:	4804      	ldr	r0, [pc, #16]	; (8000560 <MX_GPIO_Init+0x90>)
 8000550:	f000 fb12 	bl	8000b78 <HAL_GPIO_Init>

}
 8000554:	bf00      	nop
 8000556:	3720      	adds	r7, #32
 8000558:	46bd      	mov	sp, r7
 800055a:	bd80      	pop	{r7, pc}
 800055c:	40021000 	.word	0x40021000
 8000560:	48000400 	.word	0x48000400

08000564 <main>:
/**
  * @brief  The application entry point.
  * @retval int
  */
int main(void)
{
 8000564:	b580      	push	{r7, lr}
 8000566:	af00      	add	r7, sp, #0
  /* USER CODE END 1 */

  /* MCU Configuration--------------------------------------------------------*/

  /* Reset of all peripherals, Initializes the Flash interface and the Systick. */
  HAL_Init();
 8000568:	f000 f987 	bl	800087a <HAL_Init>
  /* USER CODE BEGIN Init */

  /* USER CODE END Init */

  /* Configure the system clock */
  SystemClock_Config();
 800056c:	f000 f80e 	bl	800058c <SystemClock_Config>
  /* USER CODE BEGIN SysInit */

  /* USER CODE END SysInit */

  /* Initialize all configured peripherals */
  MX_GPIO_Init();
 8000570:	f7ff ffae 	bl	80004d0 <MX_GPIO_Init>
  MX_USART2_UART_Init();
 8000574:	f000 f8be 	bl	80006f4 <MX_USART2_UART_Init>
  /* USER CODE BEGIN WHILE */
  while (1)
  {
    /* USER CODE END WHILE */

	  HAL_Delay(250);
 8000578:	20fa      	movs	r0, #250	; 0xfa
 800057a:	f000 f9f3 	bl	8000964 <HAL_Delay>
	  HAL_GPIO_TogglePin(LD3_GPIO_Port, LD3_Pin);
 800057e:	2108      	movs	r1, #8
 8000580:	4801      	ldr	r0, [pc, #4]	; (8000588 <main+0x24>)
 8000582:	f000 fc83 	bl	8000e8c <HAL_GPIO_TogglePin>
	  HAL_Delay(250);
 8000586:	e7f7      	b.n	8000578 <main+0x14>
 8000588:	48000400 	.word	0x48000400

0800058c <SystemClock_Config>:
/**
  * @brief System Clock Configuration
  * @retval None
  */
void SystemClock_Config(void)
{
 800058c:	b580      	push	{r7, lr}
 800058e:	b096      	sub	sp, #88	; 0x58
 8000590:	af00      	add	r7, sp, #0
  RCC_OscInitTypeDef RCC_OscInitStruct = {0};
 8000592:	f107 0314 	add.w	r3, r7, #20
 8000596:	2244      	movs	r2, #68	; 0x44
 8000598:	2100      	movs	r1, #0
 800059a:	4618      	mov	r0, r3
 800059c:	f002 f97c 	bl	8002898 <memset>
  RCC_ClkInitTypeDef RCC_ClkInitStruct = {0};
 80005a0:	463b      	mov	r3, r7
 80005a2:	2200      	movs	r2, #0
 80005a4:	601a      	str	r2, [r3, #0]
 80005a6:	605a      	str	r2, [r3, #4]
 80005a8:	609a      	str	r2, [r3, #8]
 80005aa:	60da      	str	r2, [r3, #12]
 80005ac:	611a      	str	r2, [r3, #16]

  /** Configure the main internal regulator output voltage
  */
  if (HAL_PWREx_ControlVoltageScaling(PWR_REGULATOR_VOLTAGE_SCALE1) != HAL_OK)
 80005ae:	f44f 7000 	mov.w	r0, #512	; 0x200
 80005b2:	f000 fc93 	bl	8000edc <HAL_PWREx_ControlVoltageScaling>
 80005b6:	4603      	mov	r3, r0
 80005b8:	2b00      	cmp	r3, #0
 80005ba:	d001      	beq.n	80005c0 <SystemClock_Config+0x34>
  {
    Error_Handler();
 80005bc:	f000 f835 	bl	800062a <Error_Handler>
  }

  /** Initializes the RCC Oscillators according to the specified parameters
  * in the RCC_OscInitTypeDef structure.
  */
  RCC_OscInitStruct.OscillatorType = RCC_OSCILLATORTYPE_HSI;
 80005c0:	2302      	movs	r3, #2
 80005c2:	617b      	str	r3, [r7, #20]
  RCC_OscInitStruct.HSIState = RCC_HSI_ON;
 80005c4:	f44f 7380 	mov.w	r3, #256	; 0x100
 80005c8:	623b      	str	r3, [r7, #32]
  RCC_OscInitStruct.HSICalibrationValue = 16;
 80005ca:	2310      	movs	r3, #16
 80005cc:	627b      	str	r3, [r7, #36]	; 0x24
  RCC_OscInitStruct.PLL.PLLState = RCC_PLL_ON;
 80005ce:	2302      	movs	r3, #2
 80005d0:	643b      	str	r3, [r7, #64]	; 0x40
  RCC_OscInitStruct.PLL.PLLSource = RCC_PLLSOURCE_HSI;
 80005d2:	2302      	movs	r3, #2
 80005d4:	647b      	str	r3, [r7, #68]	; 0x44
  RCC_OscInitStruct.PLL.PLLM = 1;
 80005d6:	2301      	movs	r3, #1
 80005d8:	64bb      	str	r3, [r7, #72]	; 0x48
  RCC_OscInitStruct.PLL.PLLN = 10;
 80005da:	230a      	movs	r3, #10
 80005dc:	64fb      	str	r3, [r7, #76]	; 0x4c
  RCC_OscInitStruct.PLL.PLLQ = RCC_PLLQ_DIV2;
 80005de:	2302      	movs	r3, #2
 80005e0:	653b      	str	r3, [r7, #80]	; 0x50
  RCC_OscInitStruct.PLL.PLLR = RCC_PLLR_DIV2;
 80005e2:	2302      	movs	r3, #2
 80005e4:	657b      	str	r3, [r7, #84]	; 0x54
  if (HAL_RCC_OscConfig(&RCC_OscInitStruct) != HAL_OK)
 80005e6:	f107 0314 	add.w	r3, r7, #20
 80005ea:	4618      	mov	r0, r3
 80005ec:	f000 fccc 	bl	8000f88 <HAL_RCC_OscConfig>
 80005f0:	4603      	mov	r3, r0
 80005f2:	2b00      	cmp	r3, #0
 80005f4:	d001      	beq.n	80005fa <SystemClock_Config+0x6e>
  {
    Error_Handler();
 80005f6:	f000 f818 	bl	800062a <Error_Handler>
  }

  /** Initializes the CPU, AHB and APB buses clocks
  */
  RCC_ClkInitStruct.ClockType = RCC_CLOCKTYPE_HCLK|RCC_CLOCKTYPE_SYSCLK
 80005fa:	230f      	movs	r3, #15
 80005fc:	603b      	str	r3, [r7, #0]
                              |RCC_CLOCKTYPE_PCLK1|RCC_CLOCKTYPE_PCLK2;
  RCC_ClkInitStruct.SYSCLKSource = RCC_SYSCLKSOURCE_PLLCLK;
 80005fe:	2303      	movs	r3, #3
 8000600:	607b      	str	r3, [r7, #4]
  RCC_ClkInitStruct.AHBCLKDivider = RCC_SYSCLK_DIV1;
 8000602:	2300      	movs	r3, #0
 8000604:	60bb      	str	r3, [r7, #8]
  RCC_ClkInitStruct.APB1CLKDivider = RCC_HCLK_DIV1;
 8000606:	2300      	movs	r3, #0
 8000608:	60fb      	str	r3, [r7, #12]
  RCC_ClkInitStruct.APB2CLKDivider = RCC_HCLK_DIV1;
 800060a:	2300      	movs	r3, #0
 800060c:	613b      	str	r3, [r7, #16]

  if (HAL_RCC_ClockConfig(&RCC_ClkInitStruct, FLASH_LATENCY_4) != HAL_OK)
 800060e:	463b      	mov	r3, r7
 8000610:	2104      	movs	r1, #4
 8000612:	4618      	mov	r0, r3
 8000614:	f001 f91a 	bl	800184c <HAL_RCC_ClockConfig>
 8000618:	4603      	mov	r3, r0
 800061a:	2b00      	cmp	r3, #0
 800061c:	d001      	beq.n	8000622 <SystemClock_Config+0x96>
  {
    Error_Handler();
 800061e:	f000 f804 	bl	800062a <Error_Handler>
  }
}
 8000622:	bf00      	nop
 8000624:	3758      	adds	r7, #88	; 0x58
 8000626:	46bd      	mov	sp, r7
 8000628:	bd80      	pop	{r7, pc}

0800062a <Error_Handler>:
/**
  * @brief  This function is executed in case of error occurrence.
  * @retval None
  */
void Error_Handler(void)
{
 800062a:	b480      	push	{r7}
 800062c:	af00      	add	r7, sp, #0
  \details Disables IRQ interrupts by setting the I-bit in the CPSR.
           Can only be executed in Privileged modes.
 */
__STATIC_FORCEINLINE void __disable_irq(void)
{
  __ASM volatile ("cpsid i" : : : "memory");
 800062e:	b672      	cpsid	i
}
 8000630:	bf00      	nop
  /* USER CODE BEGIN Error_Handler_Debug */
  /* User can add his own implementation to report the HAL error return state */
  __disable_irq();
  while (1)
 8000632:	e7fe      	b.n	8000632 <Error_Handler+0x8>

08000634 <HAL_MspInit>:
/* USER CODE END 0 */
/**
  * Initializes the Global MSP.
  */
void HAL_MspInit(void)
{
 8000634:	b480      	push	{r7}
 8000636:	b083      	sub	sp, #12
 8000638:	af00      	add	r7, sp, #0
  /* USER CODE BEGIN MspInit 0 */

  /* USER CODE END MspInit 0 */

  __HAL_RCC_SYSCFG_CLK_ENABLE();
 800063a:	4b0f      	ldr	r3, [pc, #60]	; (8000678 <HAL_MspInit+0x44>)
 800063c:	6e1b      	ldr	r3, [r3, #96]	; 0x60
 800063e:	4a0e      	ldr	r2, [pc, #56]	; (8000678 <HAL_MspInit+0x44>)
 8000640:	f043 0301 	orr.w	r3, r3, #1
 8000644:	6613      	str	r3, [r2, #96]	; 0x60
 8000646:	4b0c      	ldr	r3, [pc, #48]	; (8000678 <HAL_MspInit+0x44>)
 8000648:	6e1b      	ldr	r3, [r3, #96]	; 0x60
 800064a:	f003 0301 	and.w	r3, r3, #1
 800064e:	607b      	str	r3, [r7, #4]
 8000650:	687b      	ldr	r3, [r7, #4]
  __HAL_RCC_PWR_CLK_ENABLE();
 8000652:	4b09      	ldr	r3, [pc, #36]	; (8000678 <HAL_MspInit+0x44>)
 8000654:	6d9b      	ldr	r3, [r3, #88]	; 0x58
 8000656:	4a08      	ldr	r2, [pc, #32]	; (8000678 <HAL_MspInit+0x44>)
 8000658:	f043 5380 	orr.w	r3, r3, #268435456	; 0x10000000
 800065c:	6593      	str	r3, [r2, #88]	; 0x58
 800065e:	4b06      	ldr	r3, [pc, #24]	; (8000678 <HAL_MspInit+0x44>)
 8000660:	6d9b      	ldr	r3, [r3, #88]	; 0x58
 8000662:	f003 5380 	and.w	r3, r3, #268435456	; 0x10000000
 8000666:	603b      	str	r3, [r7, #0]
 8000668:	683b      	ldr	r3, [r7, #0]
  /* System interrupt init*/

  /* USER CODE BEGIN MspInit 1 */

  /* USER CODE END MspInit 1 */
}
 800066a:	bf00      	nop
 800066c:	370c      	adds	r7, #12
 800066e:	46bd      	mov	sp, r7
 8000670:	f85d 7b04 	ldr.w	r7, [sp], #4
 8000674:	4770      	bx	lr
 8000676:	bf00      	nop
 8000678:	40021000 	.word	0x40021000

0800067c <NMI_Handler>:
/******************************************************************************/
/**
  * @brief This function handles Non maskable interrupt.
  */
void NMI_Handler(void)
{
 800067c:	b480      	push	{r7}
 800067e:	af00      	add	r7, sp, #0
  /* USER CODE BEGIN NonMaskableInt_IRQn 0 */

  /* USER CODE END NonMaskableInt_IRQn 0 */
  /* USER CODE BEGIN NonMaskableInt_IRQn 1 */
  while (1)
 8000680:	e7fe      	b.n	8000680 <NMI_Handler+0x4>

08000682 <HardFault_Handler>:

/**
  * @brief This function handles Hard fault interrupt.
  */
void HardFault_Handler(void)
{
 8000682:	b480      	push	{r7}
 8000684:	af00      	add	r7, sp, #0
  /* USER CODE BEGIN HardFault_IRQn 0 */

  /* USER CODE END HardFault_IRQn 0 */
  while (1)
 8000686:	e7fe      	b.n	8000686 <HardFault_Handler+0x4>

08000688 <MemManage_Handler>:

/**
  * @brief This function handles Memory management fault.
  */
void MemManage_Handler(void)
{
 8000688:	b480      	push	{r7}
 800068a:	af00      	add	r7, sp, #0
  /* USER CODE BEGIN MemoryManagement_IRQn 0 */

  /* USER CODE END MemoryManagement_IRQn 0 */
  while (1)
 800068c:	e7fe      	b.n	800068c <MemManage_Handler+0x4>

0800068e <BusFault_Handler>:

/**
  * @brief This function handles Prefetch fault, memory access fault.
  */
void BusFault_Handler(void)
{
 800068e:	b480      	push	{r7}
 8000690:	af00      	add	r7, sp, #0
  /* USER CODE BEGIN BusFault_IRQn 0 */

  /* USER CODE END BusFault_IRQn 0 */
  while (1)
 8000692:	e7fe      	b.n	8000692 <BusFault_Handler+0x4>

08000694 <UsageFault_Handler>:

/**
  * @brief This function handles Undefined instruction or illegal state.
  */
void UsageFault_Handler(void)
{
 8000694:	b480      	push	{r7}
 8000696:	af00      	add	r7, sp, #0
  /* USER CODE BEGIN UsageFault_IRQn 0 */

  /* USER CODE END UsageFault_IRQn 0 */
  while (1)
 8000698:	e7fe      	b.n	8000698 <UsageFault_Handler+0x4>

0800069a <SVC_Handler>:

/**
  * @brief This function handles System service call via SWI instruction.
  */
void SVC_Handler(void)
{
 800069a:	b480      	push	{r7}
 800069c:	af00      	add	r7, sp, #0

  /* USER CODE END SVCall_IRQn 0 */
  /* USER CODE BEGIN SVCall_IRQn 1 */

  /* USER CODE END SVCall_IRQn 1 */
}
 800069e:	bf00      	nop
 80006a0:	46bd      	mov	sp, r7
 80006a2:	f85d 7b04 	ldr.w	r7, [sp], #4
 80006a6:	4770      	bx	lr

080006a8 <DebugMon_Handler>:

/**
  * @brief This function handles Debug monitor.
  */
void DebugMon_Handler(void)
{
 80006a8:	b480      	push	{r7}
 80006aa:	af00      	add	r7, sp, #0

  /* USER CODE END DebugMonitor_IRQn 0 */
  /* USER CODE BEGIN DebugMonitor_IRQn 1 */

  /* USER CODE END DebugMonitor_IRQn 1 */
}
 80006ac:	bf00      	nop
 80006ae:	46bd      	mov	sp, r7
 80006b0:	f85d 7b04 	ldr.w	r7, [sp], #4
 80006b4:	4770      	bx	lr

080006b6 <PendSV_Handler>:

/**
  * @brief This function handles Pendable request for system service.
  */
void PendSV_Handler(void)
{
 80006b6:	b480      	push	{r7}
 80006b8:	af00      	add	r7, sp, #0

  /* USER CODE END PendSV_IRQn 0 */
  /* USER CODE BEGIN PendSV_IRQn 1 */

  /* USER CODE END PendSV_IRQn 1 */
}
 80006ba:	bf00      	nop
 80006bc:	46bd      	mov	sp, r7
 80006be:	f85d 7b04 	ldr.w	r7, [sp], #4
 80006c2:	4770      	bx	lr

080006c4 <SysTick_Handler>:

/**
  * @brief This function handles System tick timer.
  */
void SysTick_Handler(void)
{
 80006c4:	b580      	push	{r7, lr}
 80006c6:	af00      	add	r7, sp, #0
  /* USER CODE BEGIN SysTick_IRQn 0 */

  /* USER CODE END SysTick_IRQn 0 */
  HAL_IncTick();
 80006c8:	f000 f92c 	bl	8000924 <HAL_IncTick>
  /* USER CODE BEGIN SysTick_IRQn 1 */

  /* USER CODE END SysTick_IRQn 1 */
}
 80006cc:	bf00      	nop
 80006ce:	bd80      	pop	{r7, pc}

080006d0 <SystemInit>:
  * @brief  Setup the microcontroller system.
  * @retval None
  */

void SystemInit(void)
{
 80006d0:	b480      	push	{r7}
 80006d2:	af00      	add	r7, sp, #0
  SCB->VTOR = VECT_TAB_BASE_ADDRESS | VECT_TAB_OFFSET;
#endif

  /* FPU settings ------------------------------------------------------------*/
#if (__FPU_PRESENT == 1) && (__FPU_USED == 1)
  SCB->CPACR |= ((3UL << 20U)|(3UL << 22U));  /* set CP10 and CP11 Full Access */
 80006d4:	4b06      	ldr	r3, [pc, #24]	; (80006f0 <SystemInit+0x20>)
 80006d6:	f8d3 3088 	ldr.w	r3, [r3, #136]	; 0x88
 80006da:	4a05      	ldr	r2, [pc, #20]	; (80006f0 <SystemInit+0x20>)
 80006dc:	f443 0370 	orr.w	r3, r3, #15728640	; 0xf00000
 80006e0:	f8c2 3088 	str.w	r3, [r2, #136]	; 0x88
#endif
}
 80006e4:	bf00      	nop
 80006e6:	46bd      	mov	sp, r7
 80006e8:	f85d 7b04 	ldr.w	r7, [sp], #4
 80006ec:	4770      	bx	lr
 80006ee:	bf00      	nop
 80006f0:	e000ed00 	.word	0xe000ed00

080006f4 <MX_USART2_UART_Init>:
UART_HandleTypeDef huart2;

/* USART2 init function */

void MX_USART2_UART_Init(void)
{
 80006f4:	b580      	push	{r7, lr}
 80006f6:	af00      	add	r7, sp, #0
  /* USER CODE END USART2_Init 0 */

  /* USER CODE BEGIN USART2_Init 1 */

  /* USER CODE END USART2_Init 1 */
  huart2.Instance = USART2;
 80006f8:	4b14      	ldr	r3, [pc, #80]	; (800074c <MX_USART2_UART_Init+0x58>)
 80006fa:	4a15      	ldr	r2, [pc, #84]	; (8000750 <MX_USART2_UART_Init+0x5c>)
 80006fc:	601a      	str	r2, [r3, #0]
  huart2.Init.BaudRate = 115200;
 80006fe:	4b13      	ldr	r3, [pc, #76]	; (800074c <MX_USART2_UART_Init+0x58>)
 8000700:	f44f 32e1 	mov.w	r2, #115200	; 0x1c200
 8000704:	605a      	str	r2, [r3, #4]
  huart2.Init.WordLength = UART_WORDLENGTH_8B;
 8000706:	4b11      	ldr	r3, [pc, #68]	; (800074c <MX_USART2_UART_Init+0x58>)
 8000708:	2200      	movs	r2, #0
 800070a:	609a      	str	r2, [r3, #8]
  huart2.Init.StopBits = UART_STOPBITS_1;
 800070c:	4b0f      	ldr	r3, [pc, #60]	; (800074c <MX_USART2_UART_Init+0x58>)
 800070e:	2200      	movs	r2, #0
 8000710:	60da      	str	r2, [r3, #12]
  huart2.Init.Parity = UART_PARITY_NONE;
 8000712:	4b0e      	ldr	r3, [pc, #56]	; (800074c <MX_USART2_UART_Init+0x58>)
 8000714:	2200      	movs	r2, #0
 8000716:	611a      	str	r2, [r3, #16]
  huart2.Init.Mode = UART_MODE_TX_RX;
 8000718:	4b0c      	ldr	r3, [pc, #48]	; (800074c <MX_USART2_UART_Init+0x58>)
 800071a:	220c      	movs	r2, #12
 800071c:	615a      	str	r2, [r3, #20]
  huart2.Init.HwFlowCtl = UART_HWCONTROL_NONE;
 800071e:	4b0b      	ldr	r3, [pc, #44]	; (800074c <MX_USART2_UART_Init+0x58>)
 8000720:	2200      	movs	r2, #0
 8000722:	619a      	str	r2, [r3, #24]
  huart2.Init.OverSampling = UART_OVERSAMPLING_16;
 8000724:	4b09      	ldr	r3, [pc, #36]	; (800074c <MX_USART2_UART_Init+0x58>)
 8000726:	2200      	movs	r2, #0
 8000728:	61da      	str	r2, [r3, #28]
  huart2.Init.OneBitSampling = UART_ONE_BIT_SAMPLE_DISABLE;
 800072a:	4b08      	ldr	r3, [pc, #32]	; (800074c <MX_USART2_UART_Init+0x58>)
 800072c:	2200      	movs	r2, #0
 800072e:	621a      	str	r2, [r3, #32]
  huart2.AdvancedInit.AdvFeatureInit = UART_ADVFEATURE_NO_INIT;
 8000730:	4b06      	ldr	r3, [pc, #24]	; (800074c <MX_USART2_UART_Init+0x58>)
 8000732:	2200      	movs	r2, #0
 8000734:	625a      	str	r2, [r3, #36]	; 0x24
  if (HAL_UART_Init(&huart2) != HAL_OK)
 8000736:	4805      	ldr	r0, [pc, #20]	; (800074c <MX_USART2_UART_Init+0x58>)
 8000738:	f001 fc32 	bl	8001fa0 <HAL_UART_Init>
 800073c:	4603      	mov	r3, r0
 800073e:	2b00      	cmp	r3, #0
 8000740:	d001      	beq.n	8000746 <MX_USART2_UART_Init+0x52>
  {
    Error_Handler();
 8000742:	f7ff ff72 	bl	800062a <Error_Handler>
  }
  /* USER CODE BEGIN USART2_Init 2 */

  /* USER CODE END USART2_Init 2 */

}
 8000746:	bf00      	nop
 8000748:	bd80      	pop	{r7, pc}
 800074a:	bf00      	nop
 800074c:	20000028 	.word	0x20000028
 8000750:	40004400 	.word	0x40004400

08000754 <HAL_UART_MspInit>:

void HAL_UART_MspInit(UART_HandleTypeDef* uartHandle)
{
 8000754:	b580      	push	{r7, lr}
 8000756:	b096      	sub	sp, #88	; 0x58
 8000758:	af00      	add	r7, sp, #0
 800075a:	6078      	str	r0, [r7, #4]

  GPIO_InitTypeDef GPIO_InitStruct = {0};
 800075c:	f107 0344 	add.w	r3, r7, #68	; 0x44
 8000760:	2200      	movs	r2, #0
 8000762:	601a      	str	r2, [r3, #0]
 8000764:	605a      	str	r2, [r3, #4]
 8000766:	609a      	str	r2, [r3, #8]
 8000768:	60da      	str	r2, [r3, #12]
 800076a:	611a      	str	r2, [r3, #16]
  RCC_PeriphCLKInitTypeDef PeriphClkInit = {0};
 800076c:	f107 0310 	add.w	r3, r7, #16
 8000770:	2234      	movs	r2, #52	; 0x34
 8000772:	2100      	movs	r1, #0
 8000774:	4618      	mov	r0, r3
 8000776:	f002 f88f 	bl	8002898 <memset>
  if(uartHandle->Instance==USART2)
 800077a:	687b      	ldr	r3, [r7, #4]
 800077c:	681b      	ldr	r3, [r3, #0]
 800077e:	4a28      	ldr	r2, [pc, #160]	; (8000820 <HAL_UART_MspInit+0xcc>)
 8000780:	4293      	cmp	r3, r2
 8000782:	d148      	bne.n	8000816 <HAL_UART_MspInit+0xc2>

  /* USER CODE END USART2_MspInit 0 */

  /** Initializes the peripherals clock
  */
    PeriphClkInit.PeriphClockSelection = RCC_PERIPHCLK_USART2;
 8000784:	2302      	movs	r3, #2
 8000786:	613b      	str	r3, [r7, #16]
    PeriphClkInit.Usart2ClockSelection = RCC_USART2CLKSOURCE_PCLK1;
 8000788:	2300      	movs	r3, #0
 800078a:	61bb      	str	r3, [r7, #24]
    if (HAL_RCCEx_PeriphCLKConfig(&PeriphClkInit) != HAL_OK)
 800078c:	f107 0310 	add.w	r3, r7, #16
 8000790:	4618      	mov	r0, r3
 8000792:	f001 fa7f 	bl	8001c94 <HAL_RCCEx_PeriphCLKConfig>
 8000796:	4603      	mov	r3, r0
 8000798:	2b00      	cmp	r3, #0
 800079a:	d001      	beq.n	80007a0 <HAL_UART_MspInit+0x4c>
    {
      Error_Handler();
 800079c:	f7ff ff45 	bl	800062a <Error_Handler>
    }

    /* USART2 clock enable */
    __HAL_RCC_USART2_CLK_ENABLE();
 80007a0:	4b20      	ldr	r3, [pc, #128]	; (8000824 <HAL_UART_MspInit+0xd0>)
 80007a2:	6d9b      	ldr	r3, [r3, #88]	; 0x58
 80007a4:	4a1f      	ldr	r2, [pc, #124]	; (8000824 <HAL_UART_MspInit+0xd0>)
 80007a6:	f443 3300 	orr.w	r3, r3, #131072	; 0x20000
 80007aa:	6593      	str	r3, [r2, #88]	; 0x58
 80007ac:	4b1d      	ldr	r3, [pc, #116]	; (8000824 <HAL_UART_MspInit+0xd0>)
 80007ae:	6d9b      	ldr	r3, [r3, #88]	; 0x58
 80007b0:	f403 3300 	and.w	r3, r3, #131072	; 0x20000
 80007b4:	60fb      	str	r3, [r7, #12]
 80007b6:	68fb      	ldr	r3, [r7, #12]

    __HAL_RCC_GPIOA_CLK_ENABLE();
 80007b8:	4b1a      	ldr	r3, [pc, #104]	; (8000824 <HAL_UART_MspInit+0xd0>)
 80007ba:	6cdb      	ldr	r3, [r3, #76]	; 0x4c
 80007bc:	4a19      	ldr	r2, [pc, #100]	; (8000824 <HAL_UART_MspInit+0xd0>)
 80007be:	f043 0301 	orr.w	r3, r3, #1
 80007c2:	64d3      	str	r3, [r2, #76]	; 0x4c
 80007c4:	4b17      	ldr	r3, [pc, #92]	; (8000824 <HAL_UART_MspInit+0xd0>)
 80007c6:	6cdb      	ldr	r3, [r3, #76]	; 0x4c
 80007c8:	f003 0301 	and.w	r3, r3, #1
 80007cc:	60bb      	str	r3, [r7, #8]
 80007ce:	68bb      	ldr	r3, [r7, #8]
    /**USART2 GPIO Configuration
    PA2     ------> USART2_TX
    PA15 (JTDI)     ------> USART2_RX
    */
    GPIO_InitStruct.Pin = VCP_TX_Pin;
 80007d0:	2304      	movs	r3, #4
 80007d2:	647b      	str	r3, [r7, #68]	; 0x44
    GPIO_InitStruct.Mode = GPIO_MODE_AF_PP;
 80007d4:	2302      	movs	r3, #2
 80007d6:	64bb      	str	r3, [r7, #72]	; 0x48
    GPIO_InitStruct.Pull = GPIO_NOPULL;
 80007d8:	2300      	movs	r3, #0
 80007da:	64fb      	str	r3, [r7, #76]	; 0x4c
    GPIO_InitStruct.Speed = GPIO_SPEED_FREQ_VERY_HIGH;
 80007dc:	2303      	movs	r3, #3
 80007de:	653b      	str	r3, [r7, #80]	; 0x50
    GPIO_InitStruct.Alternate = GPIO_AF7_USART2;
 80007e0:	2307      	movs	r3, #7
 80007e2:	657b      	str	r3, [r7, #84]	; 0x54
    HAL_GPIO_Init(VCP_TX_GPIO_Port, &GPIO_InitStruct);
 80007e4:	f107 0344 	add.w	r3, r7, #68	; 0x44
 80007e8:	4619      	mov	r1, r3
 80007ea:	f04f 4090 	mov.w	r0, #1207959552	; 0x48000000
 80007ee:	f000 f9c3 	bl	8000b78 <HAL_GPIO_Init>

    GPIO_InitStruct.Pin = VCP_RX_Pin;
 80007f2:	f44f 4300 	mov.w	r3, #32768	; 0x8000
 80007f6:	647b      	str	r3, [r7, #68]	; 0x44
    GPIO_InitStruct.Mode = GPIO_MODE_AF_PP;
 80007f8:	2302      	movs	r3, #2
 80007fa:	64bb      	str	r3, [r7, #72]	; 0x48
    GPIO_InitStruct.Pull = GPIO_NOPULL;
 80007fc:	2300      	movs	r3, #0
 80007fe:	64fb      	str	r3, [r7, #76]	; 0x4c
    GPIO_InitStruct.Speed = GPIO_SPEED_FREQ_VERY_HIGH;
 8000800:	2303      	movs	r3, #3
 8000802:	653b      	str	r3, [r7, #80]	; 0x50
    GPIO_InitStruct.Alternate = GPIO_AF3_USART2;
 8000804:	2303      	movs	r3, #3
 8000806:	657b      	str	r3, [r7, #84]	; 0x54
    HAL_GPIO_Init(VCP_RX_GPIO_Port, &GPIO_InitStruct);
 8000808:	f107 0344 	add.w	r3, r7, #68	; 0x44
 800080c:	4619      	mov	r1, r3
 800080e:	f04f 4090 	mov.w	r0, #1207959552	; 0x48000000
 8000812:	f000 f9b1 	bl	8000b78 <HAL_GPIO_Init>

  /* USER CODE BEGIN USART2_MspInit 1 */

  /* USER CODE END USART2_MspInit 1 */
  }
}
 8000816:	bf00      	nop
 8000818:	3758      	adds	r7, #88	; 0x58
 800081a:	46bd      	mov	sp, r7
 800081c:	bd80      	pop	{r7, pc}
 800081e:	bf00      	nop
 8000820:	40004400 	.word	0x40004400
 8000824:	40021000 	.word	0x40021000

08000828 <Reset_Handler>:

    .section	.text.Reset_Handler
	.weak	Reset_Handler
	.type	Reset_Handler, %function
Reset_Handler:
  ldr   sp, =_estack    /* Set stack pointer */
 8000828:	f8df d034 	ldr.w	sp, [pc, #52]	; 8000860 <LoopForever+0x2>

/* Call the clock system initialization function.*/
    bl  SystemInit
 800082c:	f7ff ff50 	bl	80006d0 <SystemInit>

/* Copy the data segment initializers from flash to SRAM */
  ldr r0, =_sdata
 8000830:	480c      	ldr	r0, [pc, #48]	; (8000864 <LoopForever+0x6>)
  ldr r1, =_edata
 8000832:	490d      	ldr	r1, [pc, #52]	; (8000868 <LoopForever+0xa>)
  ldr r2, =_sidata
 8000834:	4a0d      	ldr	r2, [pc, #52]	; (800086c <LoopForever+0xe>)
  movs r3, #0
 8000836:	2300      	movs	r3, #0
  b LoopCopyDataInit
 8000838:	e002      	b.n	8000840 <LoopCopyDataInit>

0800083a <CopyDataInit>:

CopyDataInit:
  ldr r4, [r2, r3]
 800083a:	58d4      	ldr	r4, [r2, r3]
  str r4, [r0, r3]
 800083c:	50c4      	str	r4, [r0, r3]
  adds r3, r3, #4
 800083e:	3304      	adds	r3, #4

08000840 <LoopCopyDataInit>:

LoopCopyDataInit:
  adds r4, r0, r3
 8000840:	18c4      	adds	r4, r0, r3
  cmp r4, r1
 8000842:	428c      	cmp	r4, r1
  bcc CopyDataInit
 8000844:	d3f9      	bcc.n	800083a <CopyDataInit>
  
/* Zero fill the bss segment. */
  ldr r2, =_sbss
 8000846:	4a0a      	ldr	r2, [pc, #40]	; (8000870 <LoopForever+0x12>)
  ldr r4, =_ebss
 8000848:	4c0a      	ldr	r4, [pc, #40]	; (8000874 <LoopForever+0x16>)
  movs r3, #0
 800084a:	2300      	movs	r3, #0
  b LoopFillZerobss
 800084c:	e001      	b.n	8000852 <LoopFillZerobss>

0800084e <FillZerobss>:

FillZerobss:
  str  r3, [r2]
 800084e:	6013      	str	r3, [r2, #0]
  adds r2, r2, #4
 8000850:	3204      	adds	r2, #4

08000852 <LoopFillZerobss>:

LoopFillZerobss:
  cmp r2, r4
 8000852:	42a2      	cmp	r2, r4
  bcc FillZerobss
 8000854:	d3fb      	bcc.n	800084e <FillZerobss>

/* Call static constructors */
    bl __libc_init_array
 8000856:	f001 fffb 	bl	8002850 <__libc_init_array>
/* Call the application's entry point.*/
	bl	main
 800085a:	f7ff fe83 	bl	8000564 <main>

0800085e <LoopForever>:

LoopForever:
    b LoopForever
 800085e:	e7fe      	b.n	800085e <LoopForever>
  ldr   sp, =_estack    /* Set stack pointer */
 8000860:	2000a000 	.word	0x2000a000
  ldr r0, =_sdata
 8000864:	20000000 	.word	0x20000000
  ldr r1, =_edata
 8000868:	2000000c 	.word	0x2000000c
  ldr r2, =_sidata
 800086c:	08002918 	.word	0x08002918
  ldr r2, =_sbss
 8000870:	2000000c 	.word	0x2000000c
  ldr r4, =_ebss
 8000874:	200000b0 	.word	0x200000b0

08000878 <ADC1_2_IRQHandler>:
 * @retval : None
*/
    .section	.text.Default_Handler,"ax",%progbits
Default_Handler:
Infinite_Loop:
	b	Infinite_Loop
 8000878:	e7fe      	b.n	8000878 <ADC1_2_IRQHandler>

0800087a <HAL_Init>:
  *         each 1ms in the SysTick_Handler() interrupt handler.
  *
  * @retval HAL status
  */
HAL_StatusTypeDef HAL_Init(void)
{
 800087a:	b580      	push	{r7, lr}
 800087c:	b082      	sub	sp, #8
 800087e:	af00      	add	r7, sp, #0
  HAL_StatusTypeDef  status = HAL_OK;
 8000880:	2300      	movs	r3, #0
 8000882:	71fb      	strb	r3, [r7, #7]
#if (PREFETCH_ENABLE != 0)
  __HAL_FLASH_PREFETCH_BUFFER_ENABLE();
#endif /* PREFETCH_ENABLE */

  /* Set Interrupt Group Priority */
  HAL_NVIC_SetPriorityGrouping(NVIC_PRIORITYGROUP_4);
 8000884:	2003      	movs	r0, #3
 8000886:	f000 f943 	bl	8000b10 <HAL_NVIC_SetPriorityGrouping>

  /* Use SysTick as time base source and configure 1ms tick (default clock after Reset is MSI) */
  if (HAL_InitTick(TICK_INT_PRIORITY) != HAL_OK)
 800088a:	2000      	movs	r0, #0
 800088c:	f000 f80e 	bl	80008ac <HAL_InitTick>
 8000890:	4603      	mov	r3, r0
 8000892:	2b00      	cmp	r3, #0
 8000894:	d002      	beq.n	800089c <HAL_Init+0x22>
  {
    status = HAL_ERROR;
 8000896:	2301      	movs	r3, #1
 8000898:	71fb      	strb	r3, [r7, #7]
 800089a:	e001      	b.n	80008a0 <HAL_Init+0x26>
  }
  else
  {
    /* Init the low level hardware */
    HAL_MspInit();
 800089c:	f7ff feca 	bl	8000634 <HAL_MspInit>
  }

  /* Return function status */
  return status;
 80008a0:	79fb      	ldrb	r3, [r7, #7]
}
 80008a2:	4618      	mov	r0, r3
 80008a4:	3708      	adds	r7, #8
 80008a6:	46bd      	mov	sp, r7
 80008a8:	bd80      	pop	{r7, pc}
	...

080008ac <HAL_InitTick>:
  *       implementation  in user file.
  * @param TickPriority  Tick interrupt priority.
  * @retval HAL status
  */
__weak HAL_StatusTypeDef HAL_InitTick(uint32_t TickPriority)
{
 80008ac:	b580      	push	{r7, lr}
 80008ae:	b084      	sub	sp, #16
 80008b0:	af00      	add	r7, sp, #0
 80008b2:	6078      	str	r0, [r7, #4]
  HAL_StatusTypeDef  status = HAL_OK;
 80008b4:	2300      	movs	r3, #0
 80008b6:	73fb      	strb	r3, [r7, #15]

  /* Check uwTickFreq for MisraC 2012 (even if uwTickFreq is a enum type that doesn't take the value zero)*/
  if ((uint32_t)uwTickFreq != 0U)
 80008b8:	4b17      	ldr	r3, [pc, #92]	; (8000918 <HAL_InitTick+0x6c>)
 80008ba:	781b      	ldrb	r3, [r3, #0]
 80008bc:	2b00      	cmp	r3, #0
 80008be:	d023      	beq.n	8000908 <HAL_InitTick+0x5c>
  {
    /*Configure the SysTick to have interrupt in 1ms time basis*/
    if (HAL_SYSTICK_Config(SystemCoreClock / (1000U / (uint32_t)uwTickFreq)) == 0U)
 80008c0:	4b16      	ldr	r3, [pc, #88]	; (800091c <HAL_InitTick+0x70>)
 80008c2:	681a      	ldr	r2, [r3, #0]
 80008c4:	4b14      	ldr	r3, [pc, #80]	; (8000918 <HAL_InitTick+0x6c>)
 80008c6:	781b      	ldrb	r3, [r3, #0]
 80008c8:	4619      	mov	r1, r3
 80008ca:	f44f 737a 	mov.w	r3, #1000	; 0x3e8
 80008ce:	fbb3 f3f1 	udiv	r3, r3, r1
 80008d2:	fbb2 f3f3 	udiv	r3, r2, r3
 80008d6:	4618      	mov	r0, r3
 80008d8:	f000 f941 	bl	8000b5e <HAL_SYSTICK_Config>
 80008dc:	4603      	mov	r3, r0
 80008de:	2b00      	cmp	r3, #0
 80008e0:	d10f      	bne.n	8000902 <HAL_InitTick+0x56>
    {
      /* Configure the SysTick IRQ priority */
      if (TickPriority < (1UL << __NVIC_PRIO_BITS))
 80008e2:	687b      	ldr	r3, [r7, #4]
 80008e4:	2b0f      	cmp	r3, #15
 80008e6:	d809      	bhi.n	80008fc <HAL_InitTick+0x50>
      {
        HAL_NVIC_SetPriority(SysTick_IRQn, TickPriority, 0U);
 80008e8:	2200      	movs	r2, #0
 80008ea:	6879      	ldr	r1, [r7, #4]
 80008ec:	f04f 30ff 	mov.w	r0, #4294967295
 80008f0:	f000 f919 	bl	8000b26 <HAL_NVIC_SetPriority>
        uwTickPrio = TickPriority;
 80008f4:	4a0a      	ldr	r2, [pc, #40]	; (8000920 <HAL_InitTick+0x74>)
 80008f6:	687b      	ldr	r3, [r7, #4]
 80008f8:	6013      	str	r3, [r2, #0]
 80008fa:	e007      	b.n	800090c <HAL_InitTick+0x60>
      }
      else
      {
        status = HAL_ERROR;
 80008fc:	2301      	movs	r3, #1
 80008fe:	73fb      	strb	r3, [r7, #15]
 8000900:	e004      	b.n	800090c <HAL_InitTick+0x60>
      }
    }
    else
    {
      status = HAL_ERROR;
 8000902:	2301      	movs	r3, #1
 8000904:	73fb      	strb	r3, [r7, #15]
 8000906:	e001      	b.n	800090c <HAL_InitTick+0x60>
    }
  }
  else
  {
    status = HAL_ERROR;
 8000908:	2301      	movs	r3, #1
 800090a:	73fb      	strb	r3, [r7, #15]
  }

  /* Return function status */
  return status;
 800090c:	7bfb      	ldrb	r3, [r7, #15]
}
 800090e:	4618      	mov	r0, r3
 8000910:	3710      	adds	r7, #16
 8000912:	46bd      	mov	sp, r7
 8000914:	bd80      	pop	{r7, pc}
 8000916:	bf00      	nop
 8000918:	20000008 	.word	0x20000008
 800091c:	20000000 	.word	0x20000000
 8000920:	20000004 	.word	0x20000004

08000924 <HAL_IncTick>:
 * @note This function is declared as __weak to be overwritten in case of other
  *      implementations in user file.
  * @retval None
  */
__weak void HAL_IncTick(void)
{
 8000924:	b480      	push	{r7}
 8000926:	af00      	add	r7, sp, #0
  uwTick += (uint32_t)uwTickFreq;
 8000928:	4b06      	ldr	r3, [pc, #24]	; (8000944 <HAL_IncTick+0x20>)
 800092a:	781b      	ldrb	r3, [r3, #0]
 800092c:	461a      	mov	r2, r3
 800092e:	4b06      	ldr	r3, [pc, #24]	; (8000948 <HAL_IncTick+0x24>)
 8000930:	681b      	ldr	r3, [r3, #0]
 8000932:	4413      	add	r3, r2
 8000934:	4a04      	ldr	r2, [pc, #16]	; (8000948 <HAL_IncTick+0x24>)
 8000936:	6013      	str	r3, [r2, #0]
}
 8000938:	bf00      	nop
 800093a:	46bd      	mov	sp, r7
 800093c:	f85d 7b04 	ldr.w	r7, [sp], #4
 8000940:	4770      	bx	lr
 8000942:	bf00      	nop
 8000944:	20000008 	.word	0x20000008
 8000948:	200000ac 	.word	0x200000ac

0800094c <HAL_GetTick>:
  * @note This function is declared as __weak to be overwritten in case of other
  *       implementations in user file.
  * @retval tick value
  */
__weak uint32_t HAL_GetTick(void)
{
 800094c:	b480      	push	{r7}
 800094e:	af00      	add	r7, sp, #0
  return uwTick;
 8000950:	4b03      	ldr	r3, [pc, #12]	; (8000960 <HAL_GetTick+0x14>)
 8000952:	681b      	ldr	r3, [r3, #0]
}
 8000954:	4618      	mov	r0, r3
 8000956:	46bd      	mov	sp, r7
 8000958:	f85d 7b04 	ldr.w	r7, [sp], #4
 800095c:	4770      	bx	lr
 800095e:	bf00      	nop
 8000960:	200000ac 	.word	0x200000ac

08000964 <HAL_Delay>:
  *       implementations in user file.
  * @param Delay  specifies the delay time length, in milliseconds.
  * @retval None
  */
__weak void HAL_Delay(uint32_t Delay)
{
 8000964:	b580      	push	{r7, lr}
 8000966:	b084      	sub	sp, #16
 8000968:	af00      	add	r7, sp, #0
 800096a:	6078      	str	r0, [r7, #4]
  uint32_t tickstart = HAL_GetTick();
 800096c:	f7ff ffee 	bl	800094c <HAL_GetTick>
 8000970:	60b8      	str	r0, [r7, #8]
  uint32_t wait = Delay;
 8000972:	687b      	ldr	r3, [r7, #4]
 8000974:	60fb      	str	r3, [r7, #12]

  /* Add a period to guaranty minimum wait */
  if (wait < HAL_MAX_DELAY)
 8000976:	68fb      	ldr	r3, [r7, #12]
 8000978:	f1b3 3fff 	cmp.w	r3, #4294967295
 800097c:	d005      	beq.n	800098a <HAL_Delay+0x26>
  {
    wait += (uint32_t)uwTickFreq;
 800097e:	4b0a      	ldr	r3, [pc, #40]	; (80009a8 <HAL_Delay+0x44>)
 8000980:	781b      	ldrb	r3, [r3, #0]
 8000982:	461a      	mov	r2, r3
 8000984:	68fb      	ldr	r3, [r7, #12]
 8000986:	4413      	add	r3, r2
 8000988:	60fb      	str	r3, [r7, #12]
  }

  while ((HAL_GetTick() - tickstart) < wait)
 800098a:	bf00      	nop
 800098c:	f7ff ffde 	bl	800094c <HAL_GetTick>
 8000990:	4602      	mov	r2, r0
 8000992:	68bb      	ldr	r3, [r7, #8]
 8000994:	1ad3      	subs	r3, r2, r3
 8000996:	68fa      	ldr	r2, [r7, #12]
 8000998:	429a      	cmp	r2, r3
 800099a:	d8f7      	bhi.n	800098c <HAL_Delay+0x28>
  {
  }
}
 800099c:	bf00      	nop
 800099e:	bf00      	nop
 80009a0:	3710      	adds	r7, #16
 80009a2:	46bd      	mov	sp, r7
 80009a4:	bd80      	pop	{r7, pc}
 80009a6:	bf00      	nop
 80009a8:	20000008 	.word	0x20000008

080009ac <__NVIC_SetPriorityGrouping>:
           In case of a conflict between priority grouping and available
           priority bits (__NVIC_PRIO_BITS), the smallest possible priority group is set.
  \param [in]      PriorityGroup  Priority grouping field.
 */
__STATIC_INLINE void __NVIC_SetPriorityGrouping(uint32_t PriorityGroup)
{
 80009ac:	b480      	push	{r7}
 80009ae:	b085      	sub	sp, #20
 80009b0:	af00      	add	r7, sp, #0
 80009b2:	6078      	str	r0, [r7, #4]
  uint32_t reg_value;
  uint32_t PriorityGroupTmp = (PriorityGroup & (uint32_t)0x07UL);             /* only values 0..7 are used          */
 80009b4:	687b      	ldr	r3, [r7, #4]
 80009b6:	f003 0307 	and.w	r3, r3, #7
 80009ba:	60fb      	str	r3, [r7, #12]

  reg_value  =  SCB->AIRCR;                                                   /* read old register configuration    */
 80009bc:	4b0c      	ldr	r3, [pc, #48]	; (80009f0 <__NVIC_SetPriorityGrouping+0x44>)
 80009be:	68db      	ldr	r3, [r3, #12]
 80009c0:	60bb      	str	r3, [r7, #8]
  reg_value &= ~((uint32_t)(SCB_AIRCR_VECTKEY_Msk | SCB_AIRCR_PRIGROUP_Msk)); /* clear bits to change               */
 80009c2:	68ba      	ldr	r2, [r7, #8]
 80009c4:	f64f 03ff 	movw	r3, #63743	; 0xf8ff
 80009c8:	4013      	ands	r3, r2
 80009ca:	60bb      	str	r3, [r7, #8]
  reg_value  =  (reg_value                                   |
                ((uint32_t)0x5FAUL << SCB_AIRCR_VECTKEY_Pos) |
                (PriorityGroupTmp << SCB_AIRCR_PRIGROUP_Pos)  );              /* Insert write key and priority group */
 80009cc:	68fb      	ldr	r3, [r7, #12]
 80009ce:	021a      	lsls	r2, r3, #8
                ((uint32_t)0x5FAUL << SCB_AIRCR_VECTKEY_Pos) |
 80009d0:	68bb      	ldr	r3, [r7, #8]
 80009d2:	4313      	orrs	r3, r2
  reg_value  =  (reg_value                                   |
 80009d4:	f043 63bf 	orr.w	r3, r3, #100139008	; 0x5f80000
 80009d8:	f443 3300 	orr.w	r3, r3, #131072	; 0x20000
 80009dc:	60bb      	str	r3, [r7, #8]
  SCB->AIRCR =  reg_value;
 80009de:	4a04      	ldr	r2, [pc, #16]	; (80009f0 <__NVIC_SetPriorityGrouping+0x44>)
 80009e0:	68bb      	ldr	r3, [r7, #8]
 80009e2:	60d3      	str	r3, [r2, #12]
}
 80009e4:	bf00      	nop
 80009e6:	3714      	adds	r7, #20
 80009e8:	46bd      	mov	sp, r7
 80009ea:	f85d 7b04 	ldr.w	r7, [sp], #4
 80009ee:	4770      	bx	lr
 80009f0:	e000ed00 	.word	0xe000ed00

080009f4 <__NVIC_GetPriorityGrouping>:
  \brief   Get Priority Grouping
  \details Reads the priority grouping field from the NVIC Interrupt Controller.
  \return                Priority grouping field (SCB->AIRCR [10:8] PRIGROUP field).
 */
__STATIC_INLINE uint32_t __NVIC_GetPriorityGrouping(void)
{
 80009f4:	b480      	push	{r7}
 80009f6:	af00      	add	r7, sp, #0
  return ((uint32_t)((SCB->AIRCR & SCB_AIRCR_PRIGROUP_Msk) >> SCB_AIRCR_PRIGROUP_Pos));
 80009f8:	4b04      	ldr	r3, [pc, #16]	; (8000a0c <__NVIC_GetPriorityGrouping+0x18>)
 80009fa:	68db      	ldr	r3, [r3, #12]
 80009fc:	0a1b      	lsrs	r3, r3, #8
 80009fe:	f003 0307 	and.w	r3, r3, #7
}
 8000a02:	4618      	mov	r0, r3
 8000a04:	46bd      	mov	sp, r7
 8000a06:	f85d 7b04 	ldr.w	r7, [sp], #4
 8000a0a:	4770      	bx	lr
 8000a0c:	e000ed00 	.word	0xe000ed00

08000a10 <__NVIC_SetPriority>:
  \param [in]      IRQn  Interrupt number.
  \param [in]  priority  Priority to set.
  \note    The priority cannot be set for every processor exception.
 */
__STATIC_INLINE void __NVIC_SetPriority(IRQn_Type IRQn, uint32_t priority)
{
 8000a10:	b480      	push	{r7}
 8000a12:	b083      	sub	sp, #12
 8000a14:	af00      	add	r7, sp, #0
 8000a16:	4603      	mov	r3, r0
 8000a18:	6039      	str	r1, [r7, #0]
 8000a1a:	71fb      	strb	r3, [r7, #7]
  if ((int32_t)(IRQn) >= 0)
 8000a1c:	f997 3007 	ldrsb.w	r3, [r7, #7]
 8000a20:	2b00      	cmp	r3, #0
 8000a22:	db0a      	blt.n	8000a3a <__NVIC_SetPriority+0x2a>
  {
    NVIC->IP[((uint32_t)IRQn)]               = (uint8_t)((priority << (8U - __NVIC_PRIO_BITS)) & (uint32_t)0xFFUL);
 8000a24:	683b      	ldr	r3, [r7, #0]
 8000a26:	b2da      	uxtb	r2, r3
 8000a28:	490c      	ldr	r1, [pc, #48]	; (8000a5c <__NVIC_SetPriority+0x4c>)
 8000a2a:	f997 3007 	ldrsb.w	r3, [r7, #7]
 8000a2e:	0112      	lsls	r2, r2, #4
 8000a30:	b2d2      	uxtb	r2, r2
 8000a32:	440b      	add	r3, r1
 8000a34:	f883 2300 	strb.w	r2, [r3, #768]	; 0x300
  }
  else
  {
    SCB->SHP[(((uint32_t)IRQn) & 0xFUL)-4UL] = (uint8_t)((priority << (8U - __NVIC_PRIO_BITS)) & (uint32_t)0xFFUL);
  }
}
 8000a38:	e00a      	b.n	8000a50 <__NVIC_SetPriority+0x40>
    SCB->SHP[(((uint32_t)IRQn) & 0xFUL)-4UL] = (uint8_t)((priority << (8U - __NVIC_PRIO_BITS)) & (uint32_t)0xFFUL);
 8000a3a:	683b      	ldr	r3, [r7, #0]
 8000a3c:	b2da      	uxtb	r2, r3
 8000a3e:	4908      	ldr	r1, [pc, #32]	; (8000a60 <__NVIC_SetPriority+0x50>)
 8000a40:	79fb      	ldrb	r3, [r7, #7]
 8000a42:	f003 030f 	and.w	r3, r3, #15
 8000a46:	3b04      	subs	r3, #4
 8000a48:	0112      	lsls	r2, r2, #4
 8000a4a:	b2d2      	uxtb	r2, r2
 8000a4c:	440b      	add	r3, r1
 8000a4e:	761a      	strb	r2, [r3, #24]
}
 8000a50:	bf00      	nop
 8000a52:	370c      	adds	r7, #12
 8000a54:	46bd      	mov	sp, r7
 8000a56:	f85d 7b04 	ldr.w	r7, [sp], #4
 8000a5a:	4770      	bx	lr
 8000a5c:	e000e100 	.word	0xe000e100
 8000a60:	e000ed00 	.word	0xe000ed00

08000a64 <NVIC_EncodePriority>:
  \param [in]   PreemptPriority  Preemptive priority value (starting from 0).
  \param [in]       SubPriority  Subpriority value (starting from 0).
  \return                        Encoded priority. Value can be used in the function \ref NVIC_SetPriority().
 */
__STATIC_INLINE uint32_t NVIC_EncodePriority (uint32_t PriorityGroup, uint32_t PreemptPriority, uint32_t SubPriority)
{
 8000a64:	b480      	push	{r7}
 8000a66:	b089      	sub	sp, #36	; 0x24
 8000a68:	af00      	add	r7, sp, #0
 8000a6a:	60f8      	str	r0, [r7, #12]
 8000a6c:	60b9      	str	r1, [r7, #8]
 8000a6e:	607a      	str	r2, [r7, #4]
  uint32_t PriorityGroupTmp = (PriorityGroup & (uint32_t)0x07UL);   /* only values 0..7 are used          */
 8000a70:	68fb      	ldr	r3, [r7, #12]
 8000a72:	f003 0307 	and.w	r3, r3, #7
 8000a76:	61fb      	str	r3, [r7, #28]
  uint32_t PreemptPriorityBits;
  uint32_t SubPriorityBits;

  PreemptPriorityBits = ((7UL - PriorityGroupTmp) > (uint32_t)(__NVIC_PRIO_BITS)) ? (uint32_t)(__NVIC_PRIO_BITS) : (uint32_t)(7UL - PriorityGroupTmp);
 8000a78:	69fb      	ldr	r3, [r7, #28]
 8000a7a:	f1c3 0307 	rsb	r3, r3, #7
 8000a7e:	2b04      	cmp	r3, #4
 8000a80:	bf28      	it	cs
 8000a82:	2304      	movcs	r3, #4
 8000a84:	61bb      	str	r3, [r7, #24]
  SubPriorityBits     = ((PriorityGroupTmp + (uint32_t)(__NVIC_PRIO_BITS)) < (uint32_t)7UL) ? (uint32_t)0UL : (uint32_t)((PriorityGroupTmp - 7UL) + (uint32_t)(__NVIC_PRIO_BITS));
 8000a86:	69fb      	ldr	r3, [r7, #28]
 8000a88:	3304      	adds	r3, #4
 8000a8a:	2b06      	cmp	r3, #6
 8000a8c:	d902      	bls.n	8000a94 <NVIC_EncodePriority+0x30>
 8000a8e:	69fb      	ldr	r3, [r7, #28]
 8000a90:	3b03      	subs	r3, #3
 8000a92:	e000      	b.n	8000a96 <NVIC_EncodePriority+0x32>
 8000a94:	2300      	movs	r3, #0
 8000a96:	617b      	str	r3, [r7, #20]

  return (
           ((PreemptPriority & (uint32_t)((1UL << (PreemptPriorityBits)) - 1UL)) << SubPriorityBits) |
 8000a98:	f04f 32ff 	mov.w	r2, #4294967295
 8000a9c:	69bb      	ldr	r3, [r7, #24]
 8000a9e:	fa02 f303 	lsl.w	r3, r2, r3
 8000aa2:	43da      	mvns	r2, r3
 8000aa4:	68bb      	ldr	r3, [r7, #8]
 8000aa6:	401a      	ands	r2, r3
 8000aa8:	697b      	ldr	r3, [r7, #20]
 8000aaa:	409a      	lsls	r2, r3
           ((SubPriority     & (uint32_t)((1UL << (SubPriorityBits    )) - 1UL)))
 8000aac:	f04f 31ff 	mov.w	r1, #4294967295
 8000ab0:	697b      	ldr	r3, [r7, #20]
 8000ab2:	fa01 f303 	lsl.w	r3, r1, r3
 8000ab6:	43d9      	mvns	r1, r3
 8000ab8:	687b      	ldr	r3, [r7, #4]
 8000aba:	400b      	ands	r3, r1
           ((PreemptPriority & (uint32_t)((1UL << (PreemptPriorityBits)) - 1UL)) << SubPriorityBits) |
 8000abc:	4313      	orrs	r3, r2
         );
}
 8000abe:	4618      	mov	r0, r3
 8000ac0:	3724      	adds	r7, #36	; 0x24
 8000ac2:	46bd      	mov	sp, r7
 8000ac4:	f85d 7b04 	ldr.w	r7, [sp], #4
 8000ac8:	4770      	bx	lr
	...

08000acc <SysTick_Config>:
  \note    When the variable <b>__Vendor_SysTickConfig</b> is set to 1, then the
           function <b>SysTick_Config</b> is not included. In this case, the file <b><i>device</i>.h</b>
           must contain a vendor-specific implementation of this function.
 */
__STATIC_INLINE uint32_t SysTick_Config(uint32_t ticks)
{
 8000acc:	b580      	push	{r7, lr}
 8000ace:	b082      	sub	sp, #8
 8000ad0:	af00      	add	r7, sp, #0
 8000ad2:	6078      	str	r0, [r7, #4]
  if ((ticks - 1UL) > SysTick_LOAD_RELOAD_Msk)
 8000ad4:	687b      	ldr	r3, [r7, #4]
 8000ad6:	3b01      	subs	r3, #1
 8000ad8:	f1b3 7f80 	cmp.w	r3, #16777216	; 0x1000000
 8000adc:	d301      	bcc.n	8000ae2 <SysTick_Config+0x16>
  {
    return (1UL);                                                   /* Reload value impossible */
 8000ade:	2301      	movs	r3, #1
 8000ae0:	e00f      	b.n	8000b02 <SysTick_Config+0x36>
  }

  SysTick->LOAD  = (uint32_t)(ticks - 1UL);                         /* set reload register */
 8000ae2:	4a0a      	ldr	r2, [pc, #40]	; (8000b0c <SysTick_Config+0x40>)
 8000ae4:	687b      	ldr	r3, [r7, #4]
 8000ae6:	3b01      	subs	r3, #1
 8000ae8:	6053      	str	r3, [r2, #4]
  NVIC_SetPriority (SysTick_IRQn, (1UL << __NVIC_PRIO_BITS) - 1UL); /* set Priority for Systick Interrupt */
 8000aea:	210f      	movs	r1, #15
 8000aec:	f04f 30ff 	mov.w	r0, #4294967295
 8000af0:	f7ff ff8e 	bl	8000a10 <__NVIC_SetPriority>
  SysTick->VAL   = 0UL;                                             /* Load the SysTick Counter Value */
 8000af4:	4b05      	ldr	r3, [pc, #20]	; (8000b0c <SysTick_Config+0x40>)
 8000af6:	2200      	movs	r2, #0
 8000af8:	609a      	str	r2, [r3, #8]
  SysTick->CTRL  = SysTick_CTRL_CLKSOURCE_Msk |
 8000afa:	4b04      	ldr	r3, [pc, #16]	; (8000b0c <SysTick_Config+0x40>)
 8000afc:	2207      	movs	r2, #7
 8000afe:	601a      	str	r2, [r3, #0]
                   SysTick_CTRL_TICKINT_Msk   |
                   SysTick_CTRL_ENABLE_Msk;                         /* Enable SysTick IRQ and SysTick Timer */
  return (0UL);                                                     /* Function successful */
 8000b00:	2300      	movs	r3, #0
}
 8000b02:	4618      	mov	r0, r3
 8000b04:	3708      	adds	r7, #8
 8000b06:	46bd      	mov	sp, r7
 8000b08:	bd80      	pop	{r7, pc}
 8000b0a:	bf00      	nop
 8000b0c:	e000e010 	.word	0xe000e010

08000b10 <HAL_NVIC_SetPriorityGrouping>:
  * @note   When the NVIC_PriorityGroup_0 is selected, IRQ pre-emption is no more possible.
  *         The pending IRQ priority will be managed only by the subpriority.
  * @retval None
  */
void HAL_NVIC_SetPriorityGrouping(uint32_t PriorityGroup)
{
 8000b10:	b580      	push	{r7, lr}
 8000b12:	b082      	sub	sp, #8
 8000b14:	af00      	add	r7, sp, #0
 8000b16:	6078      	str	r0, [r7, #4]
  /* Check the parameters */
  assert_param(IS_NVIC_PRIORITY_GROUP(PriorityGroup));

  /* Set the PRIGROUP[10:8] bits according to the PriorityGroup parameter value */
  NVIC_SetPriorityGrouping(PriorityGroup);
 8000b18:	6878      	ldr	r0, [r7, #4]
 8000b1a:	f7ff ff47 	bl	80009ac <__NVIC_SetPriorityGrouping>
}
 8000b1e:	bf00      	nop
 8000b20:	3708      	adds	r7, #8
 8000b22:	46bd      	mov	sp, r7
 8000b24:	bd80      	pop	{r7, pc}

08000b26 <HAL_NVIC_SetPriority>:
  *         This parameter can be a value between 0 and 15
  *         A lower priority value indicates a higher priority.
  * @retval None
  */
void HAL_NVIC_SetPriority(IRQn_Type IRQn, uint32_t PreemptPriority, uint32_t SubPriority)
{
 8000b26:	b580      	push	{r7, lr}
 8000b28:	b086      	sub	sp, #24
 8000b2a:	af00      	add	r7, sp, #0
 8000b2c:	4603      	mov	r3, r0
 8000b2e:	60b9      	str	r1, [r7, #8]
 8000b30:	607a      	str	r2, [r7, #4]
 8000b32:	73fb      	strb	r3, [r7, #15]
  uint32_t prioritygroup = 0x00;
 8000b34:	2300      	movs	r3, #0
 8000b36:	617b      	str	r3, [r7, #20]

  /* Check the parameters */
  assert_param(IS_NVIC_SUB_PRIORITY(SubPriority));
  assert_param(IS_NVIC_PREEMPTION_PRIORITY(PreemptPriority));

  prioritygroup = NVIC_GetPriorityGrouping();
 8000b38:	f7ff ff5c 	bl	80009f4 <__NVIC_GetPriorityGrouping>
 8000b3c:	6178      	str	r0, [r7, #20]

  NVIC_SetPriority(IRQn, NVIC_EncodePriority(prioritygroup, PreemptPriority, SubPriority));
 8000b3e:	687a      	ldr	r2, [r7, #4]
 8000b40:	68b9      	ldr	r1, [r7, #8]
 8000b42:	6978      	ldr	r0, [r7, #20]
 8000b44:	f7ff ff8e 	bl	8000a64 <NVIC_EncodePriority>
 8000b48:	4602      	mov	r2, r0
 8000b4a:	f997 300f 	ldrsb.w	r3, [r7, #15]
 8000b4e:	4611      	mov	r1, r2
 8000b50:	4618      	mov	r0, r3
 8000b52:	f7ff ff5d 	bl	8000a10 <__NVIC_SetPriority>
}
 8000b56:	bf00      	nop
 8000b58:	3718      	adds	r7, #24
 8000b5a:	46bd      	mov	sp, r7
 8000b5c:	bd80      	pop	{r7, pc}

08000b5e <HAL_SYSTICK_Config>:
  * @param  TicksNumb: Specifies the ticks Number of ticks between two interrupts.
  * @retval status:  - 0  Function succeeded.
  *                  - 1  Function failed.
  */
uint32_t HAL_SYSTICK_Config(uint32_t TicksNumb)
{
 8000b5e:	b580      	push	{r7, lr}
 8000b60:	b082      	sub	sp, #8
 8000b62:	af00      	add	r7, sp, #0
 8000b64:	6078      	str	r0, [r7, #4]
   return SysTick_Config(TicksNumb);
 8000b66:	6878      	ldr	r0, [r7, #4]
 8000b68:	f7ff ffb0 	bl	8000acc <SysTick_Config>
 8000b6c:	4603      	mov	r3, r0
}
 8000b6e:	4618      	mov	r0, r3
 8000b70:	3708      	adds	r7, #8
 8000b72:	46bd      	mov	sp, r7
 8000b74:	bd80      	pop	{r7, pc}
	...

08000b78 <HAL_GPIO_Init>:
  * @param  GPIO_Init pointer to a GPIO_InitTypeDef structure that contains
  *         the configuration information for the specified GPIO peripheral.
  * @retval None
  */
void HAL_GPIO_Init(GPIO_TypeDef  *GPIOx, GPIO_InitTypeDef *GPIO_Init)
{
 8000b78:	b480      	push	{r7}
 8000b7a:	b087      	sub	sp, #28
 8000b7c:	af00      	add	r7, sp, #0
 8000b7e:	6078      	str	r0, [r7, #4]
 8000b80:	6039      	str	r1, [r7, #0]
  uint32_t position = 0x00u;
 8000b82:	2300      	movs	r3, #0
 8000b84:	617b      	str	r3, [r7, #20]
  assert_param(IS_GPIO_ALL_INSTANCE(GPIOx));
  assert_param(IS_GPIO_PIN(GPIO_Init->Pin));
  assert_param(IS_GPIO_MODE(GPIO_Init->Mode));

  /* Configure the port pins */
  while (((GPIO_Init->Pin) >> position) != 0x00u)
 8000b86:	e14e      	b.n	8000e26 <HAL_GPIO_Init+0x2ae>
  {
    /* Get current io position */
    iocurrent = (GPIO_Init->Pin) & (1uL << position);
 8000b88:	683b      	ldr	r3, [r7, #0]
 8000b8a:	681a      	ldr	r2, [r3, #0]
 8000b8c:	2101      	movs	r1, #1
 8000b8e:	697b      	ldr	r3, [r7, #20]
 8000b90:	fa01 f303 	lsl.w	r3, r1, r3
 8000b94:	4013      	ands	r3, r2
 8000b96:	60fb      	str	r3, [r7, #12]

    if (iocurrent != 0x00u)
 8000b98:	68fb      	ldr	r3, [r7, #12]
 8000b9a:	2b00      	cmp	r3, #0
 8000b9c:	f000 8140 	beq.w	8000e20 <HAL_GPIO_Init+0x2a8>
    {
      /*--------------------- GPIO Mode Configuration ------------------------*/
      /* In case of Output or Alternate function mode selection */
      if (((GPIO_Init->Mode & GPIO_MODE) == MODE_OUTPUT) || ((GPIO_Init->Mode & GPIO_MODE) == MODE_AF))
 8000ba0:	683b      	ldr	r3, [r7, #0]
 8000ba2:	685b      	ldr	r3, [r3, #4]
 8000ba4:	f003 0303 	and.w	r3, r3, #3
 8000ba8:	2b01      	cmp	r3, #1
 8000baa:	d005      	beq.n	8000bb8 <HAL_GPIO_Init+0x40>
 8000bac:	683b      	ldr	r3, [r7, #0]
 8000bae:	685b      	ldr	r3, [r3, #4]
 8000bb0:	f003 0303 	and.w	r3, r3, #3
 8000bb4:	2b02      	cmp	r3, #2
 8000bb6:	d130      	bne.n	8000c1a <HAL_GPIO_Init+0xa2>
      {
        /* Check the Speed parameter */
        assert_param(IS_GPIO_SPEED(GPIO_Init->Speed));

        /* Configure the IO Speed */
        temp = GPIOx->OSPEEDR;
 8000bb8:	687b      	ldr	r3, [r7, #4]
 8000bba:	689b      	ldr	r3, [r3, #8]
 8000bbc:	613b      	str	r3, [r7, #16]
        temp &= ~(GPIO_OSPEEDR_OSPEED0 << (position * 2u));
 8000bbe:	697b      	ldr	r3, [r7, #20]
 8000bc0:	005b      	lsls	r3, r3, #1
 8000bc2:	2203      	movs	r2, #3
 8000bc4:	fa02 f303 	lsl.w	r3, r2, r3
 8000bc8:	43db      	mvns	r3, r3
 8000bca:	693a      	ldr	r2, [r7, #16]
 8000bcc:	4013      	ands	r3, r2
 8000bce:	613b      	str	r3, [r7, #16]
        temp |= (GPIO_Init->Speed << (position * 2u));
 8000bd0:	683b      	ldr	r3, [r7, #0]
 8000bd2:	68da      	ldr	r2, [r3, #12]
 8000bd4:	697b      	ldr	r3, [r7, #20]
 8000bd6:	005b      	lsls	r3, r3, #1
 8000bd8:	fa02 f303 	lsl.w	r3, r2, r3
 8000bdc:	693a      	ldr	r2, [r7, #16]
 8000bde:	4313      	orrs	r3, r2
 8000be0:	613b      	str	r3, [r7, #16]
        GPIOx->OSPEEDR = temp;
 8000be2:	687b      	ldr	r3, [r7, #4]
 8000be4:	693a      	ldr	r2, [r7, #16]
 8000be6:	609a      	str	r2, [r3, #8]

        /* Configure the IO Output Type */
        temp = GPIOx->OTYPER;
 8000be8:	687b      	ldr	r3, [r7, #4]
 8000bea:	685b      	ldr	r3, [r3, #4]
 8000bec:	613b      	str	r3, [r7, #16]
        temp &= ~(GPIO_OTYPER_OT0 << position) ;
 8000bee:	2201      	movs	r2, #1
 8000bf0:	697b      	ldr	r3, [r7, #20]
 8000bf2:	fa02 f303 	lsl.w	r3, r2, r3
 8000bf6:	43db      	mvns	r3, r3
 8000bf8:	693a      	ldr	r2, [r7, #16]
 8000bfa:	4013      	ands	r3, r2
 8000bfc:	613b      	str	r3, [r7, #16]
        temp |= (((GPIO_Init->Mode & OUTPUT_TYPE) >> OUTPUT_TYPE_Pos) << position);
 8000bfe:	683b      	ldr	r3, [r7, #0]
 8000c00:	685b      	ldr	r3, [r3, #4]
 8000c02:	091b      	lsrs	r3, r3, #4
 8000c04:	f003 0201 	and.w	r2, r3, #1
 8000c08:	697b      	ldr	r3, [r7, #20]
 8000c0a:	fa02 f303 	lsl.w	r3, r2, r3
 8000c0e:	693a      	ldr	r2, [r7, #16]
 8000c10:	4313      	orrs	r3, r2
 8000c12:	613b      	str	r3, [r7, #16]
        GPIOx->OTYPER = temp;
 8000c14:	687b      	ldr	r3, [r7, #4]
 8000c16:	693a      	ldr	r2, [r7, #16]
 8000c18:	605a      	str	r2, [r3, #4]
      }

#endif /* STM32L471xx || STM32L475xx || STM32L476xx || STM32L485xx || STM32L486xx */

      /* Activate the Pull-up or Pull down resistor for the current IO */
      if ((GPIO_Init->Mode & GPIO_MODE) != MODE_ANALOG)
 8000c1a:	683b      	ldr	r3, [r7, #0]
 8000c1c:	685b      	ldr	r3, [r3, #4]
 8000c1e:	f003 0303 	and.w	r3, r3, #3
 8000c22:	2b03      	cmp	r3, #3
 8000c24:	d017      	beq.n	8000c56 <HAL_GPIO_Init+0xde>
      {
        /* Check the Pull parameter */
        assert_param(IS_GPIO_PULL(GPIO_Init->Pull));

        temp = GPIOx->PUPDR;
 8000c26:	687b      	ldr	r3, [r7, #4]
 8000c28:	68db      	ldr	r3, [r3, #12]
 8000c2a:	613b      	str	r3, [r7, #16]
        temp &= ~(GPIO_PUPDR_PUPD0 << (position * 2U));
 8000c2c:	697b      	ldr	r3, [r7, #20]
 8000c2e:	005b      	lsls	r3, r3, #1
 8000c30:	2203      	movs	r2, #3
 8000c32:	fa02 f303 	lsl.w	r3, r2, r3
 8000c36:	43db      	mvns	r3, r3
 8000c38:	693a      	ldr	r2, [r7, #16]
 8000c3a:	4013      	ands	r3, r2
 8000c3c:	613b      	str	r3, [r7, #16]
        temp |= ((GPIO_Init->Pull) << (position * 2U));
 8000c3e:	683b      	ldr	r3, [r7, #0]
 8000c40:	689a      	ldr	r2, [r3, #8]
 8000c42:	697b      	ldr	r3, [r7, #20]
 8000c44:	005b      	lsls	r3, r3, #1
 8000c46:	fa02 f303 	lsl.w	r3, r2, r3
 8000c4a:	693a      	ldr	r2, [r7, #16]
 8000c4c:	4313      	orrs	r3, r2
 8000c4e:	613b      	str	r3, [r7, #16]
        GPIOx->PUPDR = temp;
 8000c50:	687b      	ldr	r3, [r7, #4]
 8000c52:	693a      	ldr	r2, [r7, #16]
 8000c54:	60da      	str	r2, [r3, #12]
      }

      /* In case of Alternate function mode selection */
      if ((GPIO_Init->Mode & GPIO_MODE) == MODE_AF)
 8000c56:	683b      	ldr	r3, [r7, #0]
 8000c58:	685b      	ldr	r3, [r3, #4]
 8000c5a:	f003 0303 	and.w	r3, r3, #3
 8000c5e:	2b02      	cmp	r3, #2
 8000c60:	d123      	bne.n	8000caa <HAL_GPIO_Init+0x132>
        /* Check the Alternate function parameters */
        assert_param(IS_GPIO_AF_INSTANCE(GPIOx));
        assert_param(IS_GPIO_AF(GPIO_Init->Alternate));

        /* Configure Alternate function mapped with the current IO */
        temp = GPIOx->AFR[position >> 3u];
 8000c62:	697b      	ldr	r3, [r7, #20]
 8000c64:	08da      	lsrs	r2, r3, #3
 8000c66:	687b      	ldr	r3, [r7, #4]
 8000c68:	3208      	adds	r2, #8
 8000c6a:	f853 3022 	ldr.w	r3, [r3, r2, lsl #2]
 8000c6e:	613b      	str	r3, [r7, #16]
        temp &= ~(0xFu << ((position & 0x07u) * 4u));
 8000c70:	697b      	ldr	r3, [r7, #20]
 8000c72:	f003 0307 	and.w	r3, r3, #7
 8000c76:	009b      	lsls	r3, r3, #2
 8000c78:	220f      	movs	r2, #15
 8000c7a:	fa02 f303 	lsl.w	r3, r2, r3
 8000c7e:	43db      	mvns	r3, r3
 8000c80:	693a      	ldr	r2, [r7, #16]
 8000c82:	4013      	ands	r3, r2
 8000c84:	613b      	str	r3, [r7, #16]
        temp |= ((GPIO_Init->Alternate) << ((position & 0x07u) * 4u));
 8000c86:	683b      	ldr	r3, [r7, #0]
 8000c88:	691a      	ldr	r2, [r3, #16]
 8000c8a:	697b      	ldr	r3, [r7, #20]
 8000c8c:	f003 0307 	and.w	r3, r3, #7
 8000c90:	009b      	lsls	r3, r3, #2
 8000c92:	fa02 f303 	lsl.w	r3, r2, r3
 8000c96:	693a      	ldr	r2, [r7, #16]
 8000c98:	4313      	orrs	r3, r2
 8000c9a:	613b      	str	r3, [r7, #16]
        GPIOx->AFR[position >> 3u] = temp;
 8000c9c:	697b      	ldr	r3, [r7, #20]
 8000c9e:	08da      	lsrs	r2, r3, #3
 8000ca0:	687b      	ldr	r3, [r7, #4]
 8000ca2:	3208      	adds	r2, #8
 8000ca4:	6939      	ldr	r1, [r7, #16]
 8000ca6:	f843 1022 	str.w	r1, [r3, r2, lsl #2]
      }

      /* Configure IO Direction mode (Input, Output, Alternate or Analog) */
      temp = GPIOx->MODER;
 8000caa:	687b      	ldr	r3, [r7, #4]
 8000cac:	681b      	ldr	r3, [r3, #0]
 8000cae:	613b      	str	r3, [r7, #16]
      temp &= ~(GPIO_MODER_MODE0 << (position * 2u));
 8000cb0:	697b      	ldr	r3, [r7, #20]
 8000cb2:	005b      	lsls	r3, r3, #1
 8000cb4:	2203      	movs	r2, #3
 8000cb6:	fa02 f303 	lsl.w	r3, r2, r3
 8000cba:	43db      	mvns	r3, r3
 8000cbc:	693a      	ldr	r2, [r7, #16]
 8000cbe:	4013      	ands	r3, r2
 8000cc0:	613b      	str	r3, [r7, #16]
      temp |= ((GPIO_Init->Mode & GPIO_MODE) << (position * 2u));
 8000cc2:	683b      	ldr	r3, [r7, #0]
 8000cc4:	685b      	ldr	r3, [r3, #4]
 8000cc6:	f003 0203 	and.w	r2, r3, #3
 8000cca:	697b      	ldr	r3, [r7, #20]
 8000ccc:	005b      	lsls	r3, r3, #1
 8000cce:	fa02 f303 	lsl.w	r3, r2, r3
 8000cd2:	693a      	ldr	r2, [r7, #16]
 8000cd4:	4313      	orrs	r3, r2
 8000cd6:	613b      	str	r3, [r7, #16]
      GPIOx->MODER = temp;
 8000cd8:	687b      	ldr	r3, [r7, #4]
 8000cda:	693a      	ldr	r2, [r7, #16]
 8000cdc:	601a      	str	r2, [r3, #0]

      /*--------------------- EXTI Mode Configuration ------------------------*/
      /* Configure the External Interrupt or event for the current IO */
      if ((GPIO_Init->Mode & EXTI_MODE) != 0x00u)
 8000cde:	683b      	ldr	r3, [r7, #0]
 8000ce0:	685b      	ldr	r3, [r3, #4]
 8000ce2:	f403 3340 	and.w	r3, r3, #196608	; 0x30000
 8000ce6:	2b00      	cmp	r3, #0
 8000ce8:	f000 809a 	beq.w	8000e20 <HAL_GPIO_Init+0x2a8>
      {
        /* Enable SYSCFG Clock */
        __HAL_RCC_SYSCFG_CLK_ENABLE();
 8000cec:	4b55      	ldr	r3, [pc, #340]	; (8000e44 <HAL_GPIO_Init+0x2cc>)
 8000cee:	6e1b      	ldr	r3, [r3, #96]	; 0x60
 8000cf0:	4a54      	ldr	r2, [pc, #336]	; (8000e44 <HAL_GPIO_Init+0x2cc>)
 8000cf2:	f043 0301 	orr.w	r3, r3, #1
 8000cf6:	6613      	str	r3, [r2, #96]	; 0x60
 8000cf8:	4b52      	ldr	r3, [pc, #328]	; (8000e44 <HAL_GPIO_Init+0x2cc>)
 8000cfa:	6e1b      	ldr	r3, [r3, #96]	; 0x60
 8000cfc:	f003 0301 	and.w	r3, r3, #1
 8000d00:	60bb      	str	r3, [r7, #8]
 8000d02:	68bb      	ldr	r3, [r7, #8]

        temp = SYSCFG->EXTICR[position >> 2u];
 8000d04:	4a50      	ldr	r2, [pc, #320]	; (8000e48 <HAL_GPIO_Init+0x2d0>)
 8000d06:	697b      	ldr	r3, [r7, #20]
 8000d08:	089b      	lsrs	r3, r3, #2
 8000d0a:	3302      	adds	r3, #2
 8000d0c:	f852 3023 	ldr.w	r3, [r2, r3, lsl #2]
 8000d10:	613b      	str	r3, [r7, #16]
        temp &= ~(0x0FuL << (4u * (position & 0x03u)));
 8000d12:	697b      	ldr	r3, [r7, #20]
 8000d14:	f003 0303 	and.w	r3, r3, #3
 8000d18:	009b      	lsls	r3, r3, #2
 8000d1a:	220f      	movs	r2, #15
 8000d1c:	fa02 f303 	lsl.w	r3, r2, r3
 8000d20:	43db      	mvns	r3, r3
 8000d22:	693a      	ldr	r2, [r7, #16]
 8000d24:	4013      	ands	r3, r2
 8000d26:	613b      	str	r3, [r7, #16]
        temp |= (GPIO_GET_INDEX(GPIOx) << (4u * (position & 0x03u)));
 8000d28:	687b      	ldr	r3, [r7, #4]
 8000d2a:	f1b3 4f90 	cmp.w	r3, #1207959552	; 0x48000000
 8000d2e:	d013      	beq.n	8000d58 <HAL_GPIO_Init+0x1e0>
 8000d30:	687b      	ldr	r3, [r7, #4]
 8000d32:	4a46      	ldr	r2, [pc, #280]	; (8000e4c <HAL_GPIO_Init+0x2d4>)
 8000d34:	4293      	cmp	r3, r2
 8000d36:	d00d      	beq.n	8000d54 <HAL_GPIO_Init+0x1dc>
 8000d38:	687b      	ldr	r3, [r7, #4]
 8000d3a:	4a45      	ldr	r2, [pc, #276]	; (8000e50 <HAL_GPIO_Init+0x2d8>)
 8000d3c:	4293      	cmp	r3, r2
 8000d3e:	d007      	beq.n	8000d50 <HAL_GPIO_Init+0x1d8>
 8000d40:	687b      	ldr	r3, [r7, #4]
 8000d42:	4a44      	ldr	r2, [pc, #272]	; (8000e54 <HAL_GPIO_Init+0x2dc>)
 8000d44:	4293      	cmp	r3, r2
 8000d46:	d101      	bne.n	8000d4c <HAL_GPIO_Init+0x1d4>
 8000d48:	2303      	movs	r3, #3
 8000d4a:	e006      	b.n	8000d5a <HAL_GPIO_Init+0x1e2>
 8000d4c:	2307      	movs	r3, #7
 8000d4e:	e004      	b.n	8000d5a <HAL_GPIO_Init+0x1e2>
 8000d50:	2302      	movs	r3, #2
 8000d52:	e002      	b.n	8000d5a <HAL_GPIO_Init+0x1e2>
 8000d54:	2301      	movs	r3, #1
 8000d56:	e000      	b.n	8000d5a <HAL_GPIO_Init+0x1e2>
 8000d58:	2300      	movs	r3, #0
 8000d5a:	697a      	ldr	r2, [r7, #20]
 8000d5c:	f002 0203 	and.w	r2, r2, #3
 8000d60:	0092      	lsls	r2, r2, #2
 8000d62:	4093      	lsls	r3, r2
 8000d64:	693a      	ldr	r2, [r7, #16]
 8000d66:	4313      	orrs	r3, r2
 8000d68:	613b      	str	r3, [r7, #16]
        SYSCFG->EXTICR[position >> 2u] = temp;
 8000d6a:	4937      	ldr	r1, [pc, #220]	; (8000e48 <HAL_GPIO_Init+0x2d0>)
 8000d6c:	697b      	ldr	r3, [r7, #20]
 8000d6e:	089b      	lsrs	r3, r3, #2
 8000d70:	3302      	adds	r3, #2
 8000d72:	693a      	ldr	r2, [r7, #16]
 8000d74:	f841 2023 	str.w	r2, [r1, r3, lsl #2]

        /* Clear Rising Falling edge configuration */
        temp = EXTI->RTSR1;
 8000d78:	4b37      	ldr	r3, [pc, #220]	; (8000e58 <HAL_GPIO_Init+0x2e0>)
 8000d7a:	689b      	ldr	r3, [r3, #8]
 8000d7c:	613b      	str	r3, [r7, #16]
        temp &= ~(iocurrent);
 8000d7e:	68fb      	ldr	r3, [r7, #12]
 8000d80:	43db      	mvns	r3, r3
 8000d82:	693a      	ldr	r2, [r7, #16]
 8000d84:	4013      	ands	r3, r2
 8000d86:	613b      	str	r3, [r7, #16]
        if ((GPIO_Init->Mode & TRIGGER_RISING) != 0x00u)
 8000d88:	683b      	ldr	r3, [r7, #0]
 8000d8a:	685b      	ldr	r3, [r3, #4]
 8000d8c:	f403 1380 	and.w	r3, r3, #1048576	; 0x100000
 8000d90:	2b00      	cmp	r3, #0
 8000d92:	d003      	beq.n	8000d9c <HAL_GPIO_Init+0x224>
        {
          temp |= iocurrent;
 8000d94:	693a      	ldr	r2, [r7, #16]
 8000d96:	68fb      	ldr	r3, [r7, #12]
 8000d98:	4313      	orrs	r3, r2
 8000d9a:	613b      	str	r3, [r7, #16]
        }
        EXTI->RTSR1 = temp;
 8000d9c:	4a2e      	ldr	r2, [pc, #184]	; (8000e58 <HAL_GPIO_Init+0x2e0>)
 8000d9e:	693b      	ldr	r3, [r7, #16]
 8000da0:	6093      	str	r3, [r2, #8]

        temp = EXTI->FTSR1;
 8000da2:	4b2d      	ldr	r3, [pc, #180]	; (8000e58 <HAL_GPIO_Init+0x2e0>)
 8000da4:	68db      	ldr	r3, [r3, #12]
 8000da6:	613b      	str	r3, [r7, #16]
        temp &= ~(iocurrent);
 8000da8:	68fb      	ldr	r3, [r7, #12]
 8000daa:	43db      	mvns	r3, r3
 8000dac:	693a      	ldr	r2, [r7, #16]
 8000dae:	4013      	ands	r3, r2
 8000db0:	613b      	str	r3, [r7, #16]
        if ((GPIO_Init->Mode & TRIGGER_FALLING) != 0x00u)
 8000db2:	683b      	ldr	r3, [r7, #0]
 8000db4:	685b      	ldr	r3, [r3, #4]
 8000db6:	f403 1300 	and.w	r3, r3, #2097152	; 0x200000
 8000dba:	2b00      	cmp	r3, #0
 8000dbc:	d003      	beq.n	8000dc6 <HAL_GPIO_Init+0x24e>
        {
          temp |= iocurrent;
 8000dbe:	693a      	ldr	r2, [r7, #16]
 8000dc0:	68fb      	ldr	r3, [r7, #12]
 8000dc2:	4313      	orrs	r3, r2
 8000dc4:	613b      	str	r3, [r7, #16]
        }
        EXTI->FTSR1 = temp;
 8000dc6:	4a24      	ldr	r2, [pc, #144]	; (8000e58 <HAL_GPIO_Init+0x2e0>)
 8000dc8:	693b      	ldr	r3, [r7, #16]
 8000dca:	60d3      	str	r3, [r2, #12]

        /* Clear EXTI line configuration */
        temp = EXTI->EMR1;
 8000dcc:	4b22      	ldr	r3, [pc, #136]	; (8000e58 <HAL_GPIO_Init+0x2e0>)
 8000dce:	685b      	ldr	r3, [r3, #4]
 8000dd0:	613b      	str	r3, [r7, #16]
        temp &= ~(iocurrent);
 8000dd2:	68fb      	ldr	r3, [r7, #12]
 8000dd4:	43db      	mvns	r3, r3
 8000dd6:	693a      	ldr	r2, [r7, #16]
 8000dd8:	4013      	ands	r3, r2
 8000dda:	613b      	str	r3, [r7, #16]
        if ((GPIO_Init->Mode & EXTI_EVT) != 0x00u)
 8000ddc:	683b      	ldr	r3, [r7, #0]
 8000dde:	685b      	ldr	r3, [r3, #4]
 8000de0:	f403 3300 	and.w	r3, r3, #131072	; 0x20000
 8000de4:	2b00      	cmp	r3, #0
 8000de6:	d003      	beq.n	8000df0 <HAL_GPIO_Init+0x278>
        {
          temp |= iocurrent;
 8000de8:	693a      	ldr	r2, [r7, #16]
 8000dea:	68fb      	ldr	r3, [r7, #12]
 8000dec:	4313      	orrs	r3, r2
 8000dee:	613b      	str	r3, [r7, #16]
        }
        EXTI->EMR1 = temp;
 8000df0:	4a19      	ldr	r2, [pc, #100]	; (8000e58 <HAL_GPIO_Init+0x2e0>)
 8000df2:	693b      	ldr	r3, [r7, #16]
 8000df4:	6053      	str	r3, [r2, #4]

        temp = EXTI->IMR1;
 8000df6:	4b18      	ldr	r3, [pc, #96]	; (8000e58 <HAL_GPIO_Init+0x2e0>)
 8000df8:	681b      	ldr	r3, [r3, #0]
 8000dfa:	613b      	str	r3, [r7, #16]
        temp &= ~(iocurrent);
 8000dfc:	68fb      	ldr	r3, [r7, #12]
 8000dfe:	43db      	mvns	r3, r3
 8000e00:	693a      	ldr	r2, [r7, #16]
 8000e02:	4013      	ands	r3, r2
 8000e04:	613b      	str	r3, [r7, #16]
        if ((GPIO_Init->Mode & EXTI_IT) != 0x00u)
 8000e06:	683b      	ldr	r3, [r7, #0]
 8000e08:	685b      	ldr	r3, [r3, #4]
 8000e0a:	f403 3380 	and.w	r3, r3, #65536	; 0x10000
 8000e0e:	2b00      	cmp	r3, #0
 8000e10:	d003      	beq.n	8000e1a <HAL_GPIO_Init+0x2a2>
        {
          temp |= iocurrent;
 8000e12:	693a      	ldr	r2, [r7, #16]
 8000e14:	68fb      	ldr	r3, [r7, #12]
 8000e16:	4313      	orrs	r3, r2
 8000e18:	613b      	str	r3, [r7, #16]
        }
        EXTI->IMR1 = temp;
 8000e1a:	4a0f      	ldr	r2, [pc, #60]	; (8000e58 <HAL_GPIO_Init+0x2e0>)
 8000e1c:	693b      	ldr	r3, [r7, #16]
 8000e1e:	6013      	str	r3, [r2, #0]
      }
    }

    position++;
 8000e20:	697b      	ldr	r3, [r7, #20]
 8000e22:	3301      	adds	r3, #1
 8000e24:	617b      	str	r3, [r7, #20]
  while (((GPIO_Init->Pin) >> position) != 0x00u)
 8000e26:	683b      	ldr	r3, [r7, #0]
 8000e28:	681a      	ldr	r2, [r3, #0]
 8000e2a:	697b      	ldr	r3, [r7, #20]
 8000e2c:	fa22 f303 	lsr.w	r3, r2, r3
 8000e30:	2b00      	cmp	r3, #0
 8000e32:	f47f aea9 	bne.w	8000b88 <HAL_GPIO_Init+0x10>
  }
}
 8000e36:	bf00      	nop
 8000e38:	bf00      	nop
 8000e3a:	371c      	adds	r7, #28
 8000e3c:	46bd      	mov	sp, r7
 8000e3e:	f85d 7b04 	ldr.w	r7, [sp], #4
 8000e42:	4770      	bx	lr
 8000e44:	40021000 	.word	0x40021000
 8000e48:	40010000 	.word	0x40010000
 8000e4c:	48000400 	.word	0x48000400
 8000e50:	48000800 	.word	0x48000800
 8000e54:	48000c00 	.word	0x48000c00
 8000e58:	40010400 	.word	0x40010400

08000e5c <HAL_GPIO_WritePin>:
  *            @arg GPIO_PIN_RESET: to clear the port pin
  *            @arg GPIO_PIN_SET: to set the port pin
  * @retval None
  */
void HAL_GPIO_WritePin(GPIO_TypeDef* GPIOx, uint16_t GPIO_Pin, GPIO_PinState PinState)
{
 8000e5c:	b480      	push	{r7}
 8000e5e:	b083      	sub	sp, #12
 8000e60:	af00      	add	r7, sp, #0
 8000e62:	6078      	str	r0, [r7, #4]
 8000e64:	460b      	mov	r3, r1
 8000e66:	807b      	strh	r3, [r7, #2]
 8000e68:	4613      	mov	r3, r2
 8000e6a:	707b      	strb	r3, [r7, #1]
  /* Check the parameters */
  assert_param(IS_GPIO_PIN(GPIO_Pin));
  assert_param(IS_GPIO_PIN_ACTION(PinState));

  if(PinState != GPIO_PIN_RESET)
 8000e6c:	787b      	ldrb	r3, [r7, #1]
 8000e6e:	2b00      	cmp	r3, #0
 8000e70:	d003      	beq.n	8000e7a <HAL_GPIO_WritePin+0x1e>
  {
    GPIOx->BSRR = (uint32_t)GPIO_Pin;
 8000e72:	887a      	ldrh	r2, [r7, #2]
 8000e74:	687b      	ldr	r3, [r7, #4]
 8000e76:	619a      	str	r2, [r3, #24]
  }
  else
  {
    GPIOx->BRR = (uint32_t)GPIO_Pin;
  }
}
 8000e78:	e002      	b.n	8000e80 <HAL_GPIO_WritePin+0x24>
    GPIOx->BRR = (uint32_t)GPIO_Pin;
 8000e7a:	887a      	ldrh	r2, [r7, #2]
 8000e7c:	687b      	ldr	r3, [r7, #4]
 8000e7e:	629a      	str	r2, [r3, #40]	; 0x28
}
 8000e80:	bf00      	nop
 8000e82:	370c      	adds	r7, #12
 8000e84:	46bd      	mov	sp, r7
 8000e86:	f85d 7b04 	ldr.w	r7, [sp], #4
 8000e8a:	4770      	bx	lr

08000e8c <HAL_GPIO_TogglePin>:
  * @param  GPIOx where x can be (A..H) to select the GPIO peripheral for STM32L4 family
  * @param  GPIO_Pin specifies the pin to be toggled.
  * @retval None
  */
void HAL_GPIO_TogglePin(GPIO_TypeDef* GPIOx, uint16_t GPIO_Pin)
{
 8000e8c:	b480      	push	{r7}
 8000e8e:	b085      	sub	sp, #20
 8000e90:	af00      	add	r7, sp, #0
 8000e92:	6078      	str	r0, [r7, #4]
 8000e94:	460b      	mov	r3, r1
 8000e96:	807b      	strh	r3, [r7, #2]

  /* Check the parameters */
  assert_param(IS_GPIO_PIN(GPIO_Pin));

  /* get current Output Data Register value */
  odr = GPIOx->ODR;
 8000e98:	687b      	ldr	r3, [r7, #4]
 8000e9a:	695b      	ldr	r3, [r3, #20]
 8000e9c:	60fb      	str	r3, [r7, #12]

  /* Set selected pins that were at low level, and reset ones that were high */
  GPIOx->BSRR = ((odr & GPIO_Pin) << GPIO_NUMBER) | (~odr & GPIO_Pin);
 8000e9e:	887a      	ldrh	r2, [r7, #2]
 8000ea0:	68fb      	ldr	r3, [r7, #12]
 8000ea2:	4013      	ands	r3, r2
 8000ea4:	041a      	lsls	r2, r3, #16
 8000ea6:	68fb      	ldr	r3, [r7, #12]
 8000ea8:	43d9      	mvns	r1, r3
 8000eaa:	887b      	ldrh	r3, [r7, #2]
 8000eac:	400b      	ands	r3, r1
 8000eae:	431a      	orrs	r2, r3
 8000eb0:	687b      	ldr	r3, [r7, #4]
 8000eb2:	619a      	str	r2, [r3, #24]
}
 8000eb4:	bf00      	nop
 8000eb6:	3714      	adds	r7, #20
 8000eb8:	46bd      	mov	sp, r7
 8000eba:	f85d 7b04 	ldr.w	r7, [sp], #4
 8000ebe:	4770      	bx	lr

08000ec0 <HAL_PWREx_GetVoltageRange>:
  * @brief Return Voltage Scaling Range.
  * @retval VOS bit field (PWR_REGULATOR_VOLTAGE_SCALE1 or PWR_REGULATOR_VOLTAGE_SCALE2
  *         or PWR_REGULATOR_VOLTAGE_SCALE1_BOOST when applicable)
  */
uint32_t HAL_PWREx_GetVoltageRange(void)
{
 8000ec0:	b480      	push	{r7}
 8000ec2:	af00      	add	r7, sp, #0
    else
    {
      return PWR_REGULATOR_VOLTAGE_SCALE1_BOOST;
    }
#else
  return  (PWR->CR1 & PWR_CR1_VOS);
 8000ec4:	4b04      	ldr	r3, [pc, #16]	; (8000ed8 <HAL_PWREx_GetVoltageRange+0x18>)
 8000ec6:	681b      	ldr	r3, [r3, #0]
 8000ec8:	f403 63c0 	and.w	r3, r3, #1536	; 0x600
#endif
}
 8000ecc:	4618      	mov	r0, r3
 8000ece:	46bd      	mov	sp, r7
 8000ed0:	f85d 7b04 	ldr.w	r7, [sp], #4
 8000ed4:	4770      	bx	lr
 8000ed6:	bf00      	nop
 8000ed8:	40007000 	.word	0x40007000

08000edc <HAL_PWREx_ControlVoltageScaling>:
  *        cleared before returning the status. If the flag is not cleared within
  *        50 microseconds, HAL_TIMEOUT status is reported.
  * @retval HAL Status
  */
HAL_StatusTypeDef HAL_PWREx_ControlVoltageScaling(uint32_t VoltageScaling)
{
 8000edc:	b480      	push	{r7}
 8000ede:	b085      	sub	sp, #20
 8000ee0:	af00      	add	r7, sp, #0
 8000ee2:	6078      	str	r0, [r7, #4]
  }

#else

  /* If Set Range 1 */
  if (VoltageScaling == PWR_REGULATOR_VOLTAGE_SCALE1)
 8000ee4:	687b      	ldr	r3, [r7, #4]
 8000ee6:	f5b3 7f00 	cmp.w	r3, #512	; 0x200
 8000eea:	d130      	bne.n	8000f4e <HAL_PWREx_ControlVoltageScaling+0x72>
  {
    if (READ_BIT(PWR->CR1, PWR_CR1_VOS) != PWR_REGULATOR_VOLTAGE_SCALE1)
 8000eec:	4b23      	ldr	r3, [pc, #140]	; (8000f7c <HAL_PWREx_ControlVoltageScaling+0xa0>)
 8000eee:	681b      	ldr	r3, [r3, #0]
 8000ef0:	f403 63c0 	and.w	r3, r3, #1536	; 0x600
 8000ef4:	f5b3 7f00 	cmp.w	r3, #512	; 0x200
 8000ef8:	d038      	beq.n	8000f6c <HAL_PWREx_ControlVoltageScaling+0x90>
    {
      /* Set Range 1 */
      MODIFY_REG(PWR->CR1, PWR_CR1_VOS, PWR_REGULATOR_VOLTAGE_SCALE1);
 8000efa:	4b20      	ldr	r3, [pc, #128]	; (8000f7c <HAL_PWREx_ControlVoltageScaling+0xa0>)
 8000efc:	681b      	ldr	r3, [r3, #0]
 8000efe:	f423 63c0 	bic.w	r3, r3, #1536	; 0x600
 8000f02:	4a1e      	ldr	r2, [pc, #120]	; (8000f7c <HAL_PWREx_ControlVoltageScaling+0xa0>)
 8000f04:	f443 7300 	orr.w	r3, r3, #512	; 0x200
 8000f08:	6013      	str	r3, [r2, #0]

      /* Wait until VOSF is cleared */
      wait_loop_index = ((PWR_FLAG_SETTING_DELAY_US * SystemCoreClock) / 1000000U) + 1U;
 8000f0a:	4b1d      	ldr	r3, [pc, #116]	; (8000f80 <HAL_PWREx_ControlVoltageScaling+0xa4>)
 8000f0c:	681b      	ldr	r3, [r3, #0]
 8000f0e:	2232      	movs	r2, #50	; 0x32
 8000f10:	fb02 f303 	mul.w	r3, r2, r3
 8000f14:	4a1b      	ldr	r2, [pc, #108]	; (8000f84 <HAL_PWREx_ControlVoltageScaling+0xa8>)
 8000f16:	fba2 2303 	umull	r2, r3, r2, r3
 8000f1a:	0c9b      	lsrs	r3, r3, #18
 8000f1c:	3301      	adds	r3, #1
 8000f1e:	60fb      	str	r3, [r7, #12]
      while ((HAL_IS_BIT_SET(PWR->SR2, PWR_SR2_VOSF)) && (wait_loop_index != 0U))
 8000f20:	e002      	b.n	8000f28 <HAL_PWREx_ControlVoltageScaling+0x4c>
      {
        wait_loop_index--;
 8000f22:	68fb      	ldr	r3, [r7, #12]
 8000f24:	3b01      	subs	r3, #1
 8000f26:	60fb      	str	r3, [r7, #12]
      while ((HAL_IS_BIT_SET(PWR->SR2, PWR_SR2_VOSF)) && (wait_loop_index != 0U))
 8000f28:	4b14      	ldr	r3, [pc, #80]	; (8000f7c <HAL_PWREx_ControlVoltageScaling+0xa0>)
 8000f2a:	695b      	ldr	r3, [r3, #20]
 8000f2c:	f403 6380 	and.w	r3, r3, #1024	; 0x400
 8000f30:	f5b3 6f80 	cmp.w	r3, #1024	; 0x400
 8000f34:	d102      	bne.n	8000f3c <HAL_PWREx_ControlVoltageScaling+0x60>
 8000f36:	68fb      	ldr	r3, [r7, #12]
 8000f38:	2b00      	cmp	r3, #0
 8000f3a:	d1f2      	bne.n	8000f22 <HAL_PWREx_ControlVoltageScaling+0x46>
      }
      if (HAL_IS_BIT_SET(PWR->SR2, PWR_SR2_VOSF))
 8000f3c:	4b0f      	ldr	r3, [pc, #60]	; (8000f7c <HAL_PWREx_ControlVoltageScaling+0xa0>)
 8000f3e:	695b      	ldr	r3, [r3, #20]
 8000f40:	f403 6380 	and.w	r3, r3, #1024	; 0x400
 8000f44:	f5b3 6f80 	cmp.w	r3, #1024	; 0x400
 8000f48:	d110      	bne.n	8000f6c <HAL_PWREx_ControlVoltageScaling+0x90>
      {
        return HAL_TIMEOUT;
 8000f4a:	2303      	movs	r3, #3
 8000f4c:	e00f      	b.n	8000f6e <HAL_PWREx_ControlVoltageScaling+0x92>
      }
    }
  }
  else
  {
    if (READ_BIT(PWR->CR1, PWR_CR1_VOS) != PWR_REGULATOR_VOLTAGE_SCALE2)
 8000f4e:	4b0b      	ldr	r3, [pc, #44]	; (8000f7c <HAL_PWREx_ControlVoltageScaling+0xa0>)
 8000f50:	681b      	ldr	r3, [r3, #0]
 8000f52:	f403 63c0 	and.w	r3, r3, #1536	; 0x600
 8000f56:	f5b3 6f80 	cmp.w	r3, #1024	; 0x400
 8000f5a:	d007      	beq.n	8000f6c <HAL_PWREx_ControlVoltageScaling+0x90>
    {
      /* Set Range 2 */
      MODIFY_REG(PWR->CR1, PWR_CR1_VOS, PWR_REGULATOR_VOLTAGE_SCALE2);
 8000f5c:	4b07      	ldr	r3, [pc, #28]	; (8000f7c <HAL_PWREx_ControlVoltageScaling+0xa0>)
 8000f5e:	681b      	ldr	r3, [r3, #0]
 8000f60:	f423 63c0 	bic.w	r3, r3, #1536	; 0x600
 8000f64:	4a05      	ldr	r2, [pc, #20]	; (8000f7c <HAL_PWREx_ControlVoltageScaling+0xa0>)
 8000f66:	f443 6380 	orr.w	r3, r3, #1024	; 0x400
 8000f6a:	6013      	str	r3, [r2, #0]
      /* No need to wait for VOSF to be cleared for this transition */
    }
  }
#endif

  return HAL_OK;
 8000f6c:	2300      	movs	r3, #0
}
 8000f6e:	4618      	mov	r0, r3
 8000f70:	3714      	adds	r7, #20
 8000f72:	46bd      	mov	sp, r7
 8000f74:	f85d 7b04 	ldr.w	r7, [sp], #4
 8000f78:	4770      	bx	lr
 8000f7a:	bf00      	nop
 8000f7c:	40007000 	.word	0x40007000
 8000f80:	20000000 	.word	0x20000000
 8000f84:	431bde83 	.word	0x431bde83

08000f88 <HAL_RCC_OscConfig>:
  *         supported by this macro. User should request a transition to HSE Off
  *         first and then HSE On or HSE Bypass.
  * @retval HAL status
  */
HAL_StatusTypeDef HAL_RCC_OscConfig(RCC_OscInitTypeDef  *RCC_OscInitStruct)
{
 8000f88:	b580      	push	{r7, lr}
 8000f8a:	b08a      	sub	sp, #40	; 0x28
 8000f8c:	af00      	add	r7, sp, #0
 8000f8e:	6078      	str	r0, [r7, #4]
  uint32_t tickstart;
  HAL_StatusTypeDef status;
  uint32_t sysclk_source, pll_config;

  /* Check Null pointer */
  if(RCC_OscInitStruct == NULL)
 8000f90:	687b      	ldr	r3, [r7, #4]
 8000f92:	2b00      	cmp	r3, #0
 8000f94:	d102      	bne.n	8000f9c <HAL_RCC_OscConfig+0x14>
  {
    return HAL_ERROR;
 8000f96:	2301      	movs	r3, #1
 8000f98:	f000 bc4f 	b.w	800183a <HAL_RCC_OscConfig+0x8b2>
  }

  /* Check the parameters */
  assert_param(IS_RCC_OSCILLATORTYPE(RCC_OscInitStruct->OscillatorType));

  sysclk_source = __HAL_RCC_GET_SYSCLK_SOURCE();
 8000f9c:	4b97      	ldr	r3, [pc, #604]	; (80011fc <HAL_RCC_OscConfig+0x274>)
 8000f9e:	689b      	ldr	r3, [r3, #8]
 8000fa0:	f003 030c 	and.w	r3, r3, #12
 8000fa4:	623b      	str	r3, [r7, #32]
  pll_config = __HAL_RCC_GET_PLL_OSCSOURCE();
 8000fa6:	4b95      	ldr	r3, [pc, #596]	; (80011fc <HAL_RCC_OscConfig+0x274>)
 8000fa8:	68db      	ldr	r3, [r3, #12]
 8000faa:	f003 0303 	and.w	r3, r3, #3
 8000fae:	61fb      	str	r3, [r7, #28]

  /*----------------------------- MSI Configuration --------------------------*/
  if(((RCC_OscInitStruct->OscillatorType) & RCC_OSCILLATORTYPE_MSI) == RCC_OSCILLATORTYPE_MSI)
 8000fb0:	687b      	ldr	r3, [r7, #4]
 8000fb2:	681b      	ldr	r3, [r3, #0]
 8000fb4:	f003 0310 	and.w	r3, r3, #16
 8000fb8:	2b00      	cmp	r3, #0
 8000fba:	f000 80e6 	beq.w	800118a <HAL_RCC_OscConfig+0x202>
    assert_param(IS_RCC_MSI(RCC_OscInitStruct->MSIState));
    assert_param(IS_RCC_MSICALIBRATION_VALUE(RCC_OscInitStruct->MSICalibrationValue));
    assert_param(IS_RCC_MSI_CLOCK_RANGE(RCC_OscInitStruct->MSIClockRange));

    /* Check if MSI is used as system clock or as PLL source when PLL is selected as system clock */
    if((sysclk_source == RCC_CFGR_SWS_MSI) ||
 8000fbe:	6a3b      	ldr	r3, [r7, #32]
 8000fc0:	2b00      	cmp	r3, #0
 8000fc2:	d007      	beq.n	8000fd4 <HAL_RCC_OscConfig+0x4c>
 8000fc4:	6a3b      	ldr	r3, [r7, #32]
 8000fc6:	2b0c      	cmp	r3, #12
 8000fc8:	f040 808d 	bne.w	80010e6 <HAL_RCC_OscConfig+0x15e>
       ((sysclk_source == RCC_CFGR_SWS_PLL) && (pll_config == RCC_PLLSOURCE_MSI)))
 8000fcc:	69fb      	ldr	r3, [r7, #28]
 8000fce:	2b01      	cmp	r3, #1
 8000fd0:	f040 8089 	bne.w	80010e6 <HAL_RCC_OscConfig+0x15e>
    {
      if((READ_BIT(RCC->CR, RCC_CR_MSIRDY) != 0U) && (RCC_OscInitStruct->MSIState == RCC_MSI_OFF))
 8000fd4:	4b89      	ldr	r3, [pc, #548]	; (80011fc <HAL_RCC_OscConfig+0x274>)
 8000fd6:	681b      	ldr	r3, [r3, #0]
 8000fd8:	f003 0302 	and.w	r3, r3, #2
 8000fdc:	2b00      	cmp	r3, #0
 8000fde:	d006      	beq.n	8000fee <HAL_RCC_OscConfig+0x66>
 8000fe0:	687b      	ldr	r3, [r7, #4]
 8000fe2:	69db      	ldr	r3, [r3, #28]
 8000fe4:	2b00      	cmp	r3, #0
 8000fe6:	d102      	bne.n	8000fee <HAL_RCC_OscConfig+0x66>
      {
        return HAL_ERROR;
 8000fe8:	2301      	movs	r3, #1
 8000fea:	f000 bc26 	b.w	800183a <HAL_RCC_OscConfig+0x8b2>
      else
      {
        /* To correctly read data from FLASH memory, the number of wait states (LATENCY)
           must be correctly programmed according to the frequency of the CPU clock
           (HCLK) and the supply voltage of the device. */
        if(RCC_OscInitStruct->MSIClockRange > __HAL_RCC_GET_MSI_RANGE())
 8000fee:	687b      	ldr	r3, [r7, #4]
 8000ff0:	6a5a      	ldr	r2, [r3, #36]	; 0x24
 8000ff2:	4b82      	ldr	r3, [pc, #520]	; (80011fc <HAL_RCC_OscConfig+0x274>)
 8000ff4:	681b      	ldr	r3, [r3, #0]
 8000ff6:	f003 0308 	and.w	r3, r3, #8
 8000ffa:	2b00      	cmp	r3, #0
 8000ffc:	d004      	beq.n	8001008 <HAL_RCC_OscConfig+0x80>
 8000ffe:	4b7f      	ldr	r3, [pc, #508]	; (80011fc <HAL_RCC_OscConfig+0x274>)
 8001000:	681b      	ldr	r3, [r3, #0]
 8001002:	f003 03f0 	and.w	r3, r3, #240	; 0xf0
 8001006:	e005      	b.n	8001014 <HAL_RCC_OscConfig+0x8c>
 8001008:	4b7c      	ldr	r3, [pc, #496]	; (80011fc <HAL_RCC_OscConfig+0x274>)
 800100a:	f8d3 3094 	ldr.w	r3, [r3, #148]	; 0x94
 800100e:	091b      	lsrs	r3, r3, #4
 8001010:	f003 03f0 	and.w	r3, r3, #240	; 0xf0
 8001014:	4293      	cmp	r3, r2
 8001016:	d224      	bcs.n	8001062 <HAL_RCC_OscConfig+0xda>
        {
          /* First increase number of wait states update if necessary */
          if(RCC_SetFlashLatencyFromMSIRange(RCC_OscInitStruct->MSIClockRange) != HAL_OK)
 8001018:	687b      	ldr	r3, [r7, #4]
 800101a:	6a5b      	ldr	r3, [r3, #36]	; 0x24
 800101c:	4618      	mov	r0, r3
 800101e:	f000 fdd9 	bl	8001bd4 <RCC_SetFlashLatencyFromMSIRange>
 8001022:	4603      	mov	r3, r0
 8001024:	2b00      	cmp	r3, #0
 8001026:	d002      	beq.n	800102e <HAL_RCC_OscConfig+0xa6>
          {
            return HAL_ERROR;
 8001028:	2301      	movs	r3, #1
 800102a:	f000 bc06 	b.w	800183a <HAL_RCC_OscConfig+0x8b2>
          }

          /* Selects the Multiple Speed oscillator (MSI) clock range .*/
          __HAL_RCC_MSI_RANGE_CONFIG(RCC_OscInitStruct->MSIClockRange);
 800102e:	4b73      	ldr	r3, [pc, #460]	; (80011fc <HAL_RCC_OscConfig+0x274>)
 8001030:	681b      	ldr	r3, [r3, #0]
 8001032:	4a72      	ldr	r2, [pc, #456]	; (80011fc <HAL_RCC_OscConfig+0x274>)
 8001034:	f043 0308 	orr.w	r3, r3, #8
 8001038:	6013      	str	r3, [r2, #0]
 800103a:	4b70      	ldr	r3, [pc, #448]	; (80011fc <HAL_RCC_OscConfig+0x274>)
 800103c:	681b      	ldr	r3, [r3, #0]
 800103e:	f023 02f0 	bic.w	r2, r3, #240	; 0xf0
 8001042:	687b      	ldr	r3, [r7, #4]
 8001044:	6a5b      	ldr	r3, [r3, #36]	; 0x24
 8001046:	496d      	ldr	r1, [pc, #436]	; (80011fc <HAL_RCC_OscConfig+0x274>)
 8001048:	4313      	orrs	r3, r2
 800104a:	600b      	str	r3, [r1, #0]
          /* Adjusts the Multiple Speed oscillator (MSI) calibration value.*/
          __HAL_RCC_MSI_CALIBRATIONVALUE_ADJUST(RCC_OscInitStruct->MSICalibrationValue);
 800104c:	4b6b      	ldr	r3, [pc, #428]	; (80011fc <HAL_RCC_OscConfig+0x274>)
 800104e:	685b      	ldr	r3, [r3, #4]
 8001050:	f423 427f 	bic.w	r2, r3, #65280	; 0xff00
 8001054:	687b      	ldr	r3, [r7, #4]
 8001056:	6a1b      	ldr	r3, [r3, #32]
 8001058:	021b      	lsls	r3, r3, #8
 800105a:	4968      	ldr	r1, [pc, #416]	; (80011fc <HAL_RCC_OscConfig+0x274>)
 800105c:	4313      	orrs	r3, r2
 800105e:	604b      	str	r3, [r1, #4]
 8001060:	e025      	b.n	80010ae <HAL_RCC_OscConfig+0x126>
        }
        else
        {
          /* Else, keep current flash latency while decreasing applies */
          /* Selects the Multiple Speed oscillator (MSI) clock range .*/
          __HAL_RCC_MSI_RANGE_CONFIG(RCC_OscInitStruct->MSIClockRange);
 8001062:	4b66      	ldr	r3, [pc, #408]	; (80011fc <HAL_RCC_OscConfig+0x274>)
 8001064:	681b      	ldr	r3, [r3, #0]
 8001066:	4a65      	ldr	r2, [pc, #404]	; (80011fc <HAL_RCC_OscConfig+0x274>)
 8001068:	f043 0308 	orr.w	r3, r3, #8
 800106c:	6013      	str	r3, [r2, #0]
 800106e:	4b63      	ldr	r3, [pc, #396]	; (80011fc <HAL_RCC_OscConfig+0x274>)
 8001070:	681b      	ldr	r3, [r3, #0]
 8001072:	f023 02f0 	bic.w	r2, r3, #240	; 0xf0
 8001076:	687b      	ldr	r3, [r7, #4]
 8001078:	6a5b      	ldr	r3, [r3, #36]	; 0x24
 800107a:	4960      	ldr	r1, [pc, #384]	; (80011fc <HAL_RCC_OscConfig+0x274>)
 800107c:	4313      	orrs	r3, r2
 800107e:	600b      	str	r3, [r1, #0]
          /* Adjusts the Multiple Speed oscillator (MSI) calibration value.*/
          __HAL_RCC_MSI_CALIBRATIONVALUE_ADJUST(RCC_OscInitStruct->MSICalibrationValue);
 8001080:	4b5e      	ldr	r3, [pc, #376]	; (80011fc <HAL_RCC_OscConfig+0x274>)
 8001082:	685b      	ldr	r3, [r3, #4]
 8001084:	f423 427f 	bic.w	r2, r3, #65280	; 0xff00
 8001088:	687b      	ldr	r3, [r7, #4]
 800108a:	6a1b      	ldr	r3, [r3, #32]
 800108c:	021b      	lsls	r3, r3, #8
 800108e:	495b      	ldr	r1, [pc, #364]	; (80011fc <HAL_RCC_OscConfig+0x274>)
 8001090:	4313      	orrs	r3, r2
 8001092:	604b      	str	r3, [r1, #4]

          /* Decrease number of wait states update if necessary */
          /* Only possible when MSI is the System clock source  */
          if(sysclk_source == RCC_CFGR_SWS_MSI)
 8001094:	6a3b      	ldr	r3, [r7, #32]
 8001096:	2b00      	cmp	r3, #0
 8001098:	d109      	bne.n	80010ae <HAL_RCC_OscConfig+0x126>
          {
            if(RCC_SetFlashLatencyFromMSIRange(RCC_OscInitStruct->MSIClockRange) != HAL_OK)
 800109a:	687b      	ldr	r3, [r7, #4]
 800109c:	6a5b      	ldr	r3, [r3, #36]	; 0x24
 800109e:	4618      	mov	r0, r3
 80010a0:	f000 fd98 	bl	8001bd4 <RCC_SetFlashLatencyFromMSIRange>
 80010a4:	4603      	mov	r3, r0
 80010a6:	2b00      	cmp	r3, #0
 80010a8:	d001      	beq.n	80010ae <HAL_RCC_OscConfig+0x126>
            {
              return HAL_ERROR;
 80010aa:	2301      	movs	r3, #1
 80010ac:	e3c5      	b.n	800183a <HAL_RCC_OscConfig+0x8b2>
            }
          }
        }

        /* Update the SystemCoreClock global variable */
        SystemCoreClock = HAL_RCC_GetSysClockFreq() >> (AHBPrescTable[READ_BIT(RCC->CFGR, RCC_CFGR_HPRE) >> RCC_CFGR_HPRE_Pos] & 0x1FU);
 80010ae:	f000 fccd 	bl	8001a4c <HAL_RCC_GetSysClockFreq>
 80010b2:	4602      	mov	r2, r0
 80010b4:	4b51      	ldr	r3, [pc, #324]	; (80011fc <HAL_RCC_OscConfig+0x274>)
 80010b6:	689b      	ldr	r3, [r3, #8]
 80010b8:	091b      	lsrs	r3, r3, #4
 80010ba:	f003 030f 	and.w	r3, r3, #15
 80010be:	4950      	ldr	r1, [pc, #320]	; (8001200 <HAL_RCC_OscConfig+0x278>)
 80010c0:	5ccb      	ldrb	r3, [r1, r3]
 80010c2:	f003 031f 	and.w	r3, r3, #31
 80010c6:	fa22 f303 	lsr.w	r3, r2, r3
 80010ca:	4a4e      	ldr	r2, [pc, #312]	; (8001204 <HAL_RCC_OscConfig+0x27c>)
 80010cc:	6013      	str	r3, [r2, #0]

        /* Configure the source of time base considering new system clocks settings*/
        status = HAL_InitTick(uwTickPrio);
 80010ce:	4b4e      	ldr	r3, [pc, #312]	; (8001208 <HAL_RCC_OscConfig+0x280>)
 80010d0:	681b      	ldr	r3, [r3, #0]
 80010d2:	4618      	mov	r0, r3
 80010d4:	f7ff fbea 	bl	80008ac <HAL_InitTick>
 80010d8:	4603      	mov	r3, r0
 80010da:	75fb      	strb	r3, [r7, #23]
        if(status != HAL_OK)
 80010dc:	7dfb      	ldrb	r3, [r7, #23]
 80010de:	2b00      	cmp	r3, #0
 80010e0:	d052      	beq.n	8001188 <HAL_RCC_OscConfig+0x200>
        {
          return status;
 80010e2:	7dfb      	ldrb	r3, [r7, #23]
 80010e4:	e3a9      	b.n	800183a <HAL_RCC_OscConfig+0x8b2>
      }
    }
    else
    {
      /* Check the MSI State */
      if(RCC_OscInitStruct->MSIState != RCC_MSI_OFF)
 80010e6:	687b      	ldr	r3, [r7, #4]
 80010e8:	69db      	ldr	r3, [r3, #28]
 80010ea:	2b00      	cmp	r3, #0
 80010ec:	d032      	beq.n	8001154 <HAL_RCC_OscConfig+0x1cc>
      {
        /* Enable the Internal High Speed oscillator (MSI). */
        __HAL_RCC_MSI_ENABLE();
 80010ee:	4b43      	ldr	r3, [pc, #268]	; (80011fc <HAL_RCC_OscConfig+0x274>)
 80010f0:	681b      	ldr	r3, [r3, #0]
 80010f2:	4a42      	ldr	r2, [pc, #264]	; (80011fc <HAL_RCC_OscConfig+0x274>)
 80010f4:	f043 0301 	orr.w	r3, r3, #1
 80010f8:	6013      	str	r3, [r2, #0]

        /* Get timeout */
        tickstart = HAL_GetTick();
 80010fa:	f7ff fc27 	bl	800094c <HAL_GetTick>
 80010fe:	61b8      	str	r0, [r7, #24]

        /* Wait till MSI is ready */
        while(READ_BIT(RCC->CR, RCC_CR_MSIRDY) == 0U)
 8001100:	e008      	b.n	8001114 <HAL_RCC_OscConfig+0x18c>
        {
          if((HAL_GetTick() - tickstart) > MSI_TIMEOUT_VALUE)
 8001102:	f7ff fc23 	bl	800094c <HAL_GetTick>
 8001106:	4602      	mov	r2, r0
 8001108:	69bb      	ldr	r3, [r7, #24]
 800110a:	1ad3      	subs	r3, r2, r3
 800110c:	2b02      	cmp	r3, #2
 800110e:	d901      	bls.n	8001114 <HAL_RCC_OscConfig+0x18c>
          {
            return HAL_TIMEOUT;
 8001110:	2303      	movs	r3, #3
 8001112:	e392      	b.n	800183a <HAL_RCC_OscConfig+0x8b2>
        while(READ_BIT(RCC->CR, RCC_CR_MSIRDY) == 0U)
 8001114:	4b39      	ldr	r3, [pc, #228]	; (80011fc <HAL_RCC_OscConfig+0x274>)
 8001116:	681b      	ldr	r3, [r3, #0]
 8001118:	f003 0302 	and.w	r3, r3, #2
 800111c:	2b00      	cmp	r3, #0
 800111e:	d0f0      	beq.n	8001102 <HAL_RCC_OscConfig+0x17a>
          }
        }
         /* Selects the Multiple Speed oscillator (MSI) clock range .*/
        __HAL_RCC_MSI_RANGE_CONFIG(RCC_OscInitStruct->MSIClockRange);
 8001120:	4b36      	ldr	r3, [pc, #216]	; (80011fc <HAL_RCC_OscConfig+0x274>)
 8001122:	681b      	ldr	r3, [r3, #0]
 8001124:	4a35      	ldr	r2, [pc, #212]	; (80011fc <HAL_RCC_OscConfig+0x274>)
 8001126:	f043 0308 	orr.w	r3, r3, #8
 800112a:	6013      	str	r3, [r2, #0]
 800112c:	4b33      	ldr	r3, [pc, #204]	; (80011fc <HAL_RCC_OscConfig+0x274>)
 800112e:	681b      	ldr	r3, [r3, #0]
 8001130:	f023 02f0 	bic.w	r2, r3, #240	; 0xf0
 8001134:	687b      	ldr	r3, [r7, #4]
 8001136:	6a5b      	ldr	r3, [r3, #36]	; 0x24
 8001138:	4930      	ldr	r1, [pc, #192]	; (80011fc <HAL_RCC_OscConfig+0x274>)
 800113a:	4313      	orrs	r3, r2
 800113c:	600b      	str	r3, [r1, #0]
         /* Adjusts the Multiple Speed oscillator (MSI) calibration value.*/
        __HAL_RCC_MSI_CALIBRATIONVALUE_ADJUST(RCC_OscInitStruct->MSICalibrationValue);
 800113e:	4b2f      	ldr	r3, [pc, #188]	; (80011fc <HAL_RCC_OscConfig+0x274>)
 8001140:	685b      	ldr	r3, [r3, #4]
 8001142:	f423 427f 	bic.w	r2, r3, #65280	; 0xff00
 8001146:	687b      	ldr	r3, [r7, #4]
 8001148:	6a1b      	ldr	r3, [r3, #32]
 800114a:	021b      	lsls	r3, r3, #8
 800114c:	492b      	ldr	r1, [pc, #172]	; (80011fc <HAL_RCC_OscConfig+0x274>)
 800114e:	4313      	orrs	r3, r2
 8001150:	604b      	str	r3, [r1, #4]
 8001152:	e01a      	b.n	800118a <HAL_RCC_OscConfig+0x202>

      }
      else
      {
        /* Disable the Internal High Speed oscillator (MSI). */
        __HAL_RCC_MSI_DISABLE();
 8001154:	4b29      	ldr	r3, [pc, #164]	; (80011fc <HAL_RCC_OscConfig+0x274>)
 8001156:	681b      	ldr	r3, [r3, #0]
 8001158:	4a28      	ldr	r2, [pc, #160]	; (80011fc <HAL_RCC_OscConfig+0x274>)
 800115a:	f023 0301 	bic.w	r3, r3, #1
 800115e:	6013      	str	r3, [r2, #0]

        /* Get timeout */
        tickstart = HAL_GetTick();
 8001160:	f7ff fbf4 	bl	800094c <HAL_GetTick>
 8001164:	61b8      	str	r0, [r7, #24]

        /* Wait till MSI is ready */
        while(READ_BIT(RCC->CR, RCC_CR_MSIRDY) != 0U)
 8001166:	e008      	b.n	800117a <HAL_RCC_OscConfig+0x1f2>
        {
          if((HAL_GetTick() - tickstart) > MSI_TIMEOUT_VALUE)
 8001168:	f7ff fbf0 	bl	800094c <HAL_GetTick>
 800116c:	4602      	mov	r2, r0
 800116e:	69bb      	ldr	r3, [r7, #24]
 8001170:	1ad3      	subs	r3, r2, r3
 8001172:	2b02      	cmp	r3, #2
 8001174:	d901      	bls.n	800117a <HAL_RCC_OscConfig+0x1f2>
          {
            return HAL_TIMEOUT;
 8001176:	2303      	movs	r3, #3
 8001178:	e35f      	b.n	800183a <HAL_RCC_OscConfig+0x8b2>
        while(READ_BIT(RCC->CR, RCC_CR_MSIRDY) != 0U)
 800117a:	4b20      	ldr	r3, [pc, #128]	; (80011fc <HAL_RCC_OscConfig+0x274>)
 800117c:	681b      	ldr	r3, [r3, #0]
 800117e:	f003 0302 	and.w	r3, r3, #2
 8001182:	2b00      	cmp	r3, #0
 8001184:	d1f0      	bne.n	8001168 <HAL_RCC_OscConfig+0x1e0>
 8001186:	e000      	b.n	800118a <HAL_RCC_OscConfig+0x202>
      if((READ_BIT(RCC->CR, RCC_CR_MSIRDY) != 0U) && (RCC_OscInitStruct->MSIState == RCC_MSI_OFF))
 8001188:	bf00      	nop
        }
      }
    }
  }
  /*------------------------------- HSE Configuration ------------------------*/
  if(((RCC_OscInitStruct->OscillatorType) & RCC_OSCILLATORTYPE_HSE) == RCC_OSCILLATORTYPE_HSE)
 800118a:	687b      	ldr	r3, [r7, #4]
 800118c:	681b      	ldr	r3, [r3, #0]
 800118e:	f003 0301 	and.w	r3, r3, #1
 8001192:	2b00      	cmp	r3, #0
 8001194:	d073      	beq.n	800127e <HAL_RCC_OscConfig+0x2f6>
  {
    /* Check the parameters */
    assert_param(IS_RCC_HSE(RCC_OscInitStruct->HSEState));

    /* When the HSE is used as system clock or clock source for PLL in these cases it is not allowed to be disabled */
    if((sysclk_source == RCC_CFGR_SWS_HSE) ||
 8001196:	6a3b      	ldr	r3, [r7, #32]
 8001198:	2b08      	cmp	r3, #8
 800119a:	d005      	beq.n	80011a8 <HAL_RCC_OscConfig+0x220>
 800119c:	6a3b      	ldr	r3, [r7, #32]
 800119e:	2b0c      	cmp	r3, #12
 80011a0:	d10e      	bne.n	80011c0 <HAL_RCC_OscConfig+0x238>
       ((sysclk_source == RCC_CFGR_SWS_PLL) && (pll_config == RCC_PLLSOURCE_HSE)))
 80011a2:	69fb      	ldr	r3, [r7, #28]
 80011a4:	2b03      	cmp	r3, #3
 80011a6:	d10b      	bne.n	80011c0 <HAL_RCC_OscConfig+0x238>
    {
      if((READ_BIT(RCC->CR, RCC_CR_HSERDY) != 0U) && (RCC_OscInitStruct->HSEState == RCC_HSE_OFF))
 80011a8:	4b14      	ldr	r3, [pc, #80]	; (80011fc <HAL_RCC_OscConfig+0x274>)
 80011aa:	681b      	ldr	r3, [r3, #0]
 80011ac:	f403 3300 	and.w	r3, r3, #131072	; 0x20000
 80011b0:	2b00      	cmp	r3, #0
 80011b2:	d063      	beq.n	800127c <HAL_RCC_OscConfig+0x2f4>
 80011b4:	687b      	ldr	r3, [r7, #4]
 80011b6:	685b      	ldr	r3, [r3, #4]
 80011b8:	2b00      	cmp	r3, #0
 80011ba:	d15f      	bne.n	800127c <HAL_RCC_OscConfig+0x2f4>
      {
        return HAL_ERROR;
 80011bc:	2301      	movs	r3, #1
 80011be:	e33c      	b.n	800183a <HAL_RCC_OscConfig+0x8b2>
      }
    }
    else
    {
      /* Set the new HSE configuration ---------------------------------------*/
      __HAL_RCC_HSE_CONFIG(RCC_OscInitStruct->HSEState);
 80011c0:	687b      	ldr	r3, [r7, #4]
 80011c2:	685b      	ldr	r3, [r3, #4]
 80011c4:	f5b3 3f80 	cmp.w	r3, #65536	; 0x10000
 80011c8:	d106      	bne.n	80011d8 <HAL_RCC_OscConfig+0x250>
 80011ca:	4b0c      	ldr	r3, [pc, #48]	; (80011fc <HAL_RCC_OscConfig+0x274>)
 80011cc:	681b      	ldr	r3, [r3, #0]
 80011ce:	4a0b      	ldr	r2, [pc, #44]	; (80011fc <HAL_RCC_OscConfig+0x274>)
 80011d0:	f443 3380 	orr.w	r3, r3, #65536	; 0x10000
 80011d4:	6013      	str	r3, [r2, #0]
 80011d6:	e025      	b.n	8001224 <HAL_RCC_OscConfig+0x29c>
 80011d8:	687b      	ldr	r3, [r7, #4]
 80011da:	685b      	ldr	r3, [r3, #4]
 80011dc:	f5b3 2fa0 	cmp.w	r3, #327680	; 0x50000
 80011e0:	d114      	bne.n	800120c <HAL_RCC_OscConfig+0x284>
 80011e2:	4b06      	ldr	r3, [pc, #24]	; (80011fc <HAL_RCC_OscConfig+0x274>)
 80011e4:	681b      	ldr	r3, [r3, #0]
 80011e6:	4a05      	ldr	r2, [pc, #20]	; (80011fc <HAL_RCC_OscConfig+0x274>)
 80011e8:	f443 2380 	orr.w	r3, r3, #262144	; 0x40000
 80011ec:	6013      	str	r3, [r2, #0]
 80011ee:	4b03      	ldr	r3, [pc, #12]	; (80011fc <HAL_RCC_OscConfig+0x274>)
 80011f0:	681b      	ldr	r3, [r3, #0]
 80011f2:	4a02      	ldr	r2, [pc, #8]	; (80011fc <HAL_RCC_OscConfig+0x274>)
 80011f4:	f443 3380 	orr.w	r3, r3, #65536	; 0x10000
 80011f8:	6013      	str	r3, [r2, #0]
 80011fa:	e013      	b.n	8001224 <HAL_RCC_OscConfig+0x29c>
 80011fc:	40021000 	.word	0x40021000
 8001200:	080028c0 	.word	0x080028c0
 8001204:	20000000 	.word	0x20000000
 8001208:	20000004 	.word	0x20000004
 800120c:	4b8f      	ldr	r3, [pc, #572]	; (800144c <HAL_RCC_OscConfig+0x4c4>)
 800120e:	681b      	ldr	r3, [r3, #0]
 8001210:	4a8e      	ldr	r2, [pc, #568]	; (800144c <HAL_RCC_OscConfig+0x4c4>)
 8001212:	f423 3380 	bic.w	r3, r3, #65536	; 0x10000
 8001216:	6013      	str	r3, [r2, #0]
 8001218:	4b8c      	ldr	r3, [pc, #560]	; (800144c <HAL_RCC_OscConfig+0x4c4>)
 800121a:	681b      	ldr	r3, [r3, #0]
 800121c:	4a8b      	ldr	r2, [pc, #556]	; (800144c <HAL_RCC_OscConfig+0x4c4>)
 800121e:	f423 2380 	bic.w	r3, r3, #262144	; 0x40000
 8001222:	6013      	str	r3, [r2, #0]

      /* Check the HSE State */
      if(RCC_OscInitStruct->HSEState != RCC_HSE_OFF)
 8001224:	687b      	ldr	r3, [r7, #4]
 8001226:	685b      	ldr	r3, [r3, #4]
 8001228:	2b00      	cmp	r3, #0
 800122a:	d013      	beq.n	8001254 <HAL_RCC_OscConfig+0x2cc>
      {
        /* Get Start Tick*/
        tickstart = HAL_GetTick();
 800122c:	f7ff fb8e 	bl	800094c <HAL_GetTick>
 8001230:	61b8      	str	r0, [r7, #24]

        /* Wait till HSE is ready */
        while(READ_BIT(RCC->CR, RCC_CR_HSERDY) == 0U)
 8001232:	e008      	b.n	8001246 <HAL_RCC_OscConfig+0x2be>
        {
          if((HAL_GetTick() - tickstart) > HSE_TIMEOUT_VALUE)
 8001234:	f7ff fb8a 	bl	800094c <HAL_GetTick>
 8001238:	4602      	mov	r2, r0
 800123a:	69bb      	ldr	r3, [r7, #24]
 800123c:	1ad3      	subs	r3, r2, r3
 800123e:	2b64      	cmp	r3, #100	; 0x64
 8001240:	d901      	bls.n	8001246 <HAL_RCC_OscConfig+0x2be>
          {
            return HAL_TIMEOUT;
 8001242:	2303      	movs	r3, #3
 8001244:	e2f9      	b.n	800183a <HAL_RCC_OscConfig+0x8b2>
        while(READ_BIT(RCC->CR, RCC_CR_HSERDY) == 0U)
 8001246:	4b81      	ldr	r3, [pc, #516]	; (800144c <HAL_RCC_OscConfig+0x4c4>)
 8001248:	681b      	ldr	r3, [r3, #0]
 800124a:	f403 3300 	and.w	r3, r3, #131072	; 0x20000
 800124e:	2b00      	cmp	r3, #0
 8001250:	d0f0      	beq.n	8001234 <HAL_RCC_OscConfig+0x2ac>
 8001252:	e014      	b.n	800127e <HAL_RCC_OscConfig+0x2f6>
        }
      }
      else
      {
        /* Get Start Tick*/
        tickstart = HAL_GetTick();
 8001254:	f7ff fb7a 	bl	800094c <HAL_GetTick>
 8001258:	61b8      	str	r0, [r7, #24]

        /* Wait till HSE is disabled */
        while(READ_BIT(RCC->CR, RCC_CR_HSERDY) != 0U)
 800125a:	e008      	b.n	800126e <HAL_RCC_OscConfig+0x2e6>
        {
          if((HAL_GetTick() - tickstart) > HSE_TIMEOUT_VALUE)
 800125c:	f7ff fb76 	bl	800094c <HAL_GetTick>
 8001260:	4602      	mov	r2, r0
 8001262:	69bb      	ldr	r3, [r7, #24]
 8001264:	1ad3      	subs	r3, r2, r3
 8001266:	2b64      	cmp	r3, #100	; 0x64
 8001268:	d901      	bls.n	800126e <HAL_RCC_OscConfig+0x2e6>
          {
            return HAL_TIMEOUT;
 800126a:	2303      	movs	r3, #3
 800126c:	e2e5      	b.n	800183a <HAL_RCC_OscConfig+0x8b2>
        while(READ_BIT(RCC->CR, RCC_CR_HSERDY) != 0U)
 800126e:	4b77      	ldr	r3, [pc, #476]	; (800144c <HAL_RCC_OscConfig+0x4c4>)
 8001270:	681b      	ldr	r3, [r3, #0]
 8001272:	f403 3300 	and.w	r3, r3, #131072	; 0x20000
 8001276:	2b00      	cmp	r3, #0
 8001278:	d1f0      	bne.n	800125c <HAL_RCC_OscConfig+0x2d4>
 800127a:	e000      	b.n	800127e <HAL_RCC_OscConfig+0x2f6>
      if((READ_BIT(RCC->CR, RCC_CR_HSERDY) != 0U) && (RCC_OscInitStruct->HSEState == RCC_HSE_OFF))
 800127c:	bf00      	nop
        }
      }
    }
  }
  /*----------------------------- HSI Configuration --------------------------*/
  if(((RCC_OscInitStruct->OscillatorType) & RCC_OSCILLATORTYPE_HSI) == RCC_OSCILLATORTYPE_HSI)
 800127e:	687b      	ldr	r3, [r7, #4]
 8001280:	681b      	ldr	r3, [r3, #0]
 8001282:	f003 0302 	and.w	r3, r3, #2
 8001286:	2b00      	cmp	r3, #0
 8001288:	d060      	beq.n	800134c <HAL_RCC_OscConfig+0x3c4>
    /* Check the parameters */
    assert_param(IS_RCC_HSI(RCC_OscInitStruct->HSIState));
    assert_param(IS_RCC_HSI_CALIBRATION_VALUE(RCC_OscInitStruct->HSICalibrationValue));

    /* Check if HSI is used as system clock or as PLL source when PLL is selected as system clock */
    if((sysclk_source == RCC_CFGR_SWS_HSI) ||
 800128a:	6a3b      	ldr	r3, [r7, #32]
 800128c:	2b04      	cmp	r3, #4
 800128e:	d005      	beq.n	800129c <HAL_RCC_OscConfig+0x314>
 8001290:	6a3b      	ldr	r3, [r7, #32]
 8001292:	2b0c      	cmp	r3, #12
 8001294:	d119      	bne.n	80012ca <HAL_RCC_OscConfig+0x342>
       ((sysclk_source == RCC_CFGR_SWS_PLL) && (pll_config == RCC_PLLSOURCE_HSI)))
 8001296:	69fb      	ldr	r3, [r7, #28]
 8001298:	2b02      	cmp	r3, #2
 800129a:	d116      	bne.n	80012ca <HAL_RCC_OscConfig+0x342>
    {
      /* When HSI is used as system clock it will not be disabled */
      if((READ_BIT(RCC->CR, RCC_CR_HSIRDY) != 0U) && (RCC_OscInitStruct->HSIState == RCC_HSI_OFF))
 800129c:	4b6b      	ldr	r3, [pc, #428]	; (800144c <HAL_RCC_OscConfig+0x4c4>)
 800129e:	681b      	ldr	r3, [r3, #0]
 80012a0:	f403 6380 	and.w	r3, r3, #1024	; 0x400
 80012a4:	2b00      	cmp	r3, #0
 80012a6:	d005      	beq.n	80012b4 <HAL_RCC_OscConfig+0x32c>
 80012a8:	687b      	ldr	r3, [r7, #4]
 80012aa:	68db      	ldr	r3, [r3, #12]
 80012ac:	2b00      	cmp	r3, #0
 80012ae:	d101      	bne.n	80012b4 <HAL_RCC_OscConfig+0x32c>
      {
        return HAL_ERROR;
 80012b0:	2301      	movs	r3, #1
 80012b2:	e2c2      	b.n	800183a <HAL_RCC_OscConfig+0x8b2>
      }
      /* Otherwise, just the calibration is allowed */
      else
      {
        /* Adjusts the Internal High Speed oscillator (HSI) calibration value.*/
        __HAL_RCC_HSI_CALIBRATIONVALUE_ADJUST(RCC_OscInitStruct->HSICalibrationValue);
 80012b4:	4b65      	ldr	r3, [pc, #404]	; (800144c <HAL_RCC_OscConfig+0x4c4>)
 80012b6:	685b      	ldr	r3, [r3, #4]
 80012b8:	f023 42fe 	bic.w	r2, r3, #2130706432	; 0x7f000000
 80012bc:	687b      	ldr	r3, [r7, #4]
 80012be:	691b      	ldr	r3, [r3, #16]
 80012c0:	061b      	lsls	r3, r3, #24
 80012c2:	4962      	ldr	r1, [pc, #392]	; (800144c <HAL_RCC_OscConfig+0x4c4>)
 80012c4:	4313      	orrs	r3, r2
 80012c6:	604b      	str	r3, [r1, #4]
      if((READ_BIT(RCC->CR, RCC_CR_HSIRDY) != 0U) && (RCC_OscInitStruct->HSIState == RCC_HSI_OFF))
 80012c8:	e040      	b.n	800134c <HAL_RCC_OscConfig+0x3c4>
      }
    }
    else
    {
      /* Check the HSI State */
      if(RCC_OscInitStruct->HSIState != RCC_HSI_OFF)
 80012ca:	687b      	ldr	r3, [r7, #4]
 80012cc:	68db      	ldr	r3, [r3, #12]
 80012ce:	2b00      	cmp	r3, #0
 80012d0:	d023      	beq.n	800131a <HAL_RCC_OscConfig+0x392>
      {
        /* Enable the Internal High Speed oscillator (HSI). */
        __HAL_RCC_HSI_ENABLE();
 80012d2:	4b5e      	ldr	r3, [pc, #376]	; (800144c <HAL_RCC_OscConfig+0x4c4>)
 80012d4:	681b      	ldr	r3, [r3, #0]
 80012d6:	4a5d      	ldr	r2, [pc, #372]	; (800144c <HAL_RCC_OscConfig+0x4c4>)
 80012d8:	f443 7380 	orr.w	r3, r3, #256	; 0x100
 80012dc:	6013      	str	r3, [r2, #0]

        /* Get Start Tick*/
        tickstart = HAL_GetTick();
 80012de:	f7ff fb35 	bl	800094c <HAL_GetTick>
 80012e2:	61b8      	str	r0, [r7, #24]

        /* Wait till HSI is ready */
        while(READ_BIT(RCC->CR, RCC_CR_HSIRDY) == 0U)
 80012e4:	e008      	b.n	80012f8 <HAL_RCC_OscConfig+0x370>
        {
          if((HAL_GetTick() - tickstart) > HSI_TIMEOUT_VALUE)
 80012e6:	f7ff fb31 	bl	800094c <HAL_GetTick>
 80012ea:	4602      	mov	r2, r0
 80012ec:	69bb      	ldr	r3, [r7, #24]
 80012ee:	1ad3      	subs	r3, r2, r3
 80012f0:	2b02      	cmp	r3, #2
 80012f2:	d901      	bls.n	80012f8 <HAL_RCC_OscConfig+0x370>
          {
            return HAL_TIMEOUT;
 80012f4:	2303      	movs	r3, #3
 80012f6:	e2a0      	b.n	800183a <HAL_RCC_OscConfig+0x8b2>
        while(READ_BIT(RCC->CR, RCC_CR_HSIRDY) == 0U)
 80012f8:	4b54      	ldr	r3, [pc, #336]	; (800144c <HAL_RCC_OscConfig+0x4c4>)
 80012fa:	681b      	ldr	r3, [r3, #0]
 80012fc:	f403 6380 	and.w	r3, r3, #1024	; 0x400
 8001300:	2b00      	cmp	r3, #0
 8001302:	d0f0      	beq.n	80012e6 <HAL_RCC_OscConfig+0x35e>
          }
        }

        /* Adjusts the Internal High Speed oscillator (HSI) calibration value.*/
        __HAL_RCC_HSI_CALIBRATIONVALUE_ADJUST(RCC_OscInitStruct->HSICalibrationValue);
 8001304:	4b51      	ldr	r3, [pc, #324]	; (800144c <HAL_RCC_OscConfig+0x4c4>)
 8001306:	685b      	ldr	r3, [r3, #4]
 8001308:	f023 42fe 	bic.w	r2, r3, #2130706432	; 0x7f000000
 800130c:	687b      	ldr	r3, [r7, #4]
 800130e:	691b      	ldr	r3, [r3, #16]
 8001310:	061b      	lsls	r3, r3, #24
 8001312:	494e      	ldr	r1, [pc, #312]	; (800144c <HAL_RCC_OscConfig+0x4c4>)
 8001314:	4313      	orrs	r3, r2
 8001316:	604b      	str	r3, [r1, #4]
 8001318:	e018      	b.n	800134c <HAL_RCC_OscConfig+0x3c4>
      }
      else
      {
        /* Disable the Internal High Speed oscillator (HSI). */
        __HAL_RCC_HSI_DISABLE();
 800131a:	4b4c      	ldr	r3, [pc, #304]	; (800144c <HAL_RCC_OscConfig+0x4c4>)
 800131c:	681b      	ldr	r3, [r3, #0]
 800131e:	4a4b      	ldr	r2, [pc, #300]	; (800144c <HAL_RCC_OscConfig+0x4c4>)
 8001320:	f423 7380 	bic.w	r3, r3, #256	; 0x100
 8001324:	6013      	str	r3, [r2, #0]

        /* Get Start Tick*/
        tickstart = HAL_GetTick();
 8001326:	f7ff fb11 	bl	800094c <HAL_GetTick>
 800132a:	61b8      	str	r0, [r7, #24]

        /* Wait till HSI is disabled */
        while(READ_BIT(RCC->CR, RCC_CR_HSIRDY) != 0U)
 800132c:	e008      	b.n	8001340 <HAL_RCC_OscConfig+0x3b8>
        {
          if((HAL_GetTick() - tickstart) > HSI_TIMEOUT_VALUE)
 800132e:	f7ff fb0d 	bl	800094c <HAL_GetTick>
 8001332:	4602      	mov	r2, r0
 8001334:	69bb      	ldr	r3, [r7, #24]
 8001336:	1ad3      	subs	r3, r2, r3
 8001338:	2b02      	cmp	r3, #2
 800133a:	d901      	bls.n	8001340 <HAL_RCC_OscConfig+0x3b8>
          {
            return HAL_TIMEOUT;
 800133c:	2303      	movs	r3, #3
 800133e:	e27c      	b.n	800183a <HAL_RCC_OscConfig+0x8b2>
        while(READ_BIT(RCC->CR, RCC_CR_HSIRDY) != 0U)
 8001340:	4b42      	ldr	r3, [pc, #264]	; (800144c <HAL_RCC_OscConfig+0x4c4>)
 8001342:	681b      	ldr	r3, [r3, #0]
 8001344:	f403 6380 	and.w	r3, r3, #1024	; 0x400
 8001348:	2b00      	cmp	r3, #0
 800134a:	d1f0      	bne.n	800132e <HAL_RCC_OscConfig+0x3a6>
        }
      }
    }
  }
  /*------------------------------ LSI Configuration -------------------------*/
  if(((RCC_OscInitStruct->OscillatorType) & RCC_OSCILLATORTYPE_LSI) == RCC_OSCILLATORTYPE_LSI)
 800134c:	687b      	ldr	r3, [r7, #4]
 800134e:	681b      	ldr	r3, [r3, #0]
 8001350:	f003 0308 	and.w	r3, r3, #8
 8001354:	2b00      	cmp	r3, #0
 8001356:	f000 8082 	beq.w	800145e <HAL_RCC_OscConfig+0x4d6>
  {
    /* Check the parameters */
    assert_param(IS_RCC_LSI(RCC_OscInitStruct->LSIState));

    /* Check the LSI State */
    if(RCC_OscInitStruct->LSIState != RCC_LSI_OFF)
 800135a:	687b      	ldr	r3, [r7, #4]
 800135c:	695b      	ldr	r3, [r3, #20]
 800135e:	2b00      	cmp	r3, #0
 8001360:	d05f      	beq.n	8001422 <HAL_RCC_OscConfig+0x49a>
    {
#if defined(RCC_CSR_LSIPREDIV)
      uint32_t csr_temp = RCC->CSR;
 8001362:	4b3a      	ldr	r3, [pc, #232]	; (800144c <HAL_RCC_OscConfig+0x4c4>)
 8001364:	f8d3 3094 	ldr.w	r3, [r3, #148]	; 0x94
 8001368:	613b      	str	r3, [r7, #16]

      /* Check LSI division factor */
      assert_param(IS_RCC_LSIDIV(RCC_OscInitStruct->LSIDiv));

      if (RCC_OscInitStruct->LSIDiv != (csr_temp & RCC_CSR_LSIPREDIV))
 800136a:	687b      	ldr	r3, [r7, #4]
 800136c:	699a      	ldr	r2, [r3, #24]
 800136e:	693b      	ldr	r3, [r7, #16]
 8001370:	f003 0310 	and.w	r3, r3, #16
 8001374:	429a      	cmp	r2, r3
 8001376:	d037      	beq.n	80013e8 <HAL_RCC_OscConfig+0x460>
      {
        if (((csr_temp & RCC_CSR_LSIRDY) == RCC_CSR_LSIRDY) && \
 8001378:	693b      	ldr	r3, [r7, #16]
 800137a:	f003 0302 	and.w	r3, r3, #2
 800137e:	2b00      	cmp	r3, #0
 8001380:	d006      	beq.n	8001390 <HAL_RCC_OscConfig+0x408>
            ((csr_temp & RCC_CSR_LSION) != RCC_CSR_LSION))
 8001382:	693b      	ldr	r3, [r7, #16]
 8001384:	f003 0301 	and.w	r3, r3, #1
        if (((csr_temp & RCC_CSR_LSIRDY) == RCC_CSR_LSIRDY) && \
 8001388:	2b00      	cmp	r3, #0
 800138a:	d101      	bne.n	8001390 <HAL_RCC_OscConfig+0x408>
        {
           /* If LSIRDY is set while LSION is not enabled,
              LSIPREDIV can't be updated  */
          return HAL_ERROR;
 800138c:	2301      	movs	r3, #1
 800138e:	e254      	b.n	800183a <HAL_RCC_OscConfig+0x8b2>
        }

        /* Turn off LSI before changing RCC_CSR_LSIPREDIV */
        if ((csr_temp & RCC_CSR_LSION) == RCC_CSR_LSION)
 8001390:	693b      	ldr	r3, [r7, #16]
 8001392:	f003 0301 	and.w	r3, r3, #1
 8001396:	2b00      	cmp	r3, #0
 8001398:	d01b      	beq.n	80013d2 <HAL_RCC_OscConfig+0x44a>
        {
          __HAL_RCC_LSI_DISABLE();
 800139a:	4b2c      	ldr	r3, [pc, #176]	; (800144c <HAL_RCC_OscConfig+0x4c4>)
 800139c:	f8d3 3094 	ldr.w	r3, [r3, #148]	; 0x94
 80013a0:	4a2a      	ldr	r2, [pc, #168]	; (800144c <HAL_RCC_OscConfig+0x4c4>)
 80013a2:	f023 0301 	bic.w	r3, r3, #1
 80013a6:	f8c2 3094 	str.w	r3, [r2, #148]	; 0x94

          /* Get Start Tick*/
          tickstart = HAL_GetTick();
 80013aa:	f7ff facf 	bl	800094c <HAL_GetTick>
 80013ae:	61b8      	str	r0, [r7, #24]

          /* Wait till LSI is disabled */
          while(READ_BIT(RCC->CSR, RCC_CSR_LSIRDY) != 0U)
 80013b0:	e008      	b.n	80013c4 <HAL_RCC_OscConfig+0x43c>
          {
            if((HAL_GetTick() - tickstart) > LSI_TIMEOUT_VALUE)
 80013b2:	f7ff facb 	bl	800094c <HAL_GetTick>
 80013b6:	4602      	mov	r2, r0
 80013b8:	69bb      	ldr	r3, [r7, #24]
 80013ba:	1ad3      	subs	r3, r2, r3
 80013bc:	2b11      	cmp	r3, #17
 80013be:	d901      	bls.n	80013c4 <HAL_RCC_OscConfig+0x43c>
            {
              return HAL_TIMEOUT;
 80013c0:	2303      	movs	r3, #3
 80013c2:	e23a      	b.n	800183a <HAL_RCC_OscConfig+0x8b2>
          while(READ_BIT(RCC->CSR, RCC_CSR_LSIRDY) != 0U)
 80013c4:	4b21      	ldr	r3, [pc, #132]	; (800144c <HAL_RCC_OscConfig+0x4c4>)
 80013c6:	f8d3 3094 	ldr.w	r3, [r3, #148]	; 0x94
 80013ca:	f003 0302 	and.w	r3, r3, #2
 80013ce:	2b00      	cmp	r3, #0
 80013d0:	d1ef      	bne.n	80013b2 <HAL_RCC_OscConfig+0x42a>
            }
          }
        }

        /* Set LSI division factor */
        MODIFY_REG(RCC->CSR, RCC_CSR_LSIPREDIV, RCC_OscInitStruct->LSIDiv);
 80013d2:	4b1e      	ldr	r3, [pc, #120]	; (800144c <HAL_RCC_OscConfig+0x4c4>)
 80013d4:	f8d3 3094 	ldr.w	r3, [r3, #148]	; 0x94
 80013d8:	f023 0210 	bic.w	r2, r3, #16
 80013dc:	687b      	ldr	r3, [r7, #4]
 80013de:	699b      	ldr	r3, [r3, #24]
 80013e0:	491a      	ldr	r1, [pc, #104]	; (800144c <HAL_RCC_OscConfig+0x4c4>)
 80013e2:	4313      	orrs	r3, r2
 80013e4:	f8c1 3094 	str.w	r3, [r1, #148]	; 0x94
      }
#endif /* RCC_CSR_LSIPREDIV */

      /* Enable the Internal Low Speed oscillator (LSI). */
      __HAL_RCC_LSI_ENABLE();
 80013e8:	4b18      	ldr	r3, [pc, #96]	; (800144c <HAL_RCC_OscConfig+0x4c4>)
 80013ea:	f8d3 3094 	ldr.w	r3, [r3, #148]	; 0x94
 80013ee:	4a17      	ldr	r2, [pc, #92]	; (800144c <HAL_RCC_OscConfig+0x4c4>)
 80013f0:	f043 0301 	orr.w	r3, r3, #1
 80013f4:	f8c2 3094 	str.w	r3, [r2, #148]	; 0x94

      /* Get Start Tick*/
      tickstart = HAL_GetTick();
 80013f8:	f7ff faa8 	bl	800094c <HAL_GetTick>
 80013fc:	61b8      	str	r0, [r7, #24]

      /* Wait till LSI is ready */
      while(READ_BIT(RCC->CSR, RCC_CSR_LSIRDY) == 0U)
 80013fe:	e008      	b.n	8001412 <HAL_RCC_OscConfig+0x48a>
      {
        if((HAL_GetTick() - tickstart) > LSI_TIMEOUT_VALUE)
 8001400:	f7ff faa4 	bl	800094c <HAL_GetTick>
 8001404:	4602      	mov	r2, r0
 8001406:	69bb      	ldr	r3, [r7, #24]
 8001408:	1ad3      	subs	r3, r2, r3
 800140a:	2b11      	cmp	r3, #17
 800140c:	d901      	bls.n	8001412 <HAL_RCC_OscConfig+0x48a>
        {
          return HAL_TIMEOUT;
 800140e:	2303      	movs	r3, #3
 8001410:	e213      	b.n	800183a <HAL_RCC_OscConfig+0x8b2>
      while(READ_BIT(RCC->CSR, RCC_CSR_LSIRDY) == 0U)
 8001412:	4b0e      	ldr	r3, [pc, #56]	; (800144c <HAL_RCC_OscConfig+0x4c4>)
 8001414:	f8d3 3094 	ldr.w	r3, [r3, #148]	; 0x94
 8001418:	f003 0302 	and.w	r3, r3, #2
 800141c:	2b00      	cmp	r3, #0
 800141e:	d0ef      	beq.n	8001400 <HAL_RCC_OscConfig+0x478>
 8001420:	e01d      	b.n	800145e <HAL_RCC_OscConfig+0x4d6>
      }
    }
    else
    {
      /* Disable the Internal Low Speed oscillator (LSI). */
      __HAL_RCC_LSI_DISABLE();
 8001422:	4b0a      	ldr	r3, [pc, #40]	; (800144c <HAL_RCC_OscConfig+0x4c4>)
 8001424:	f8d3 3094 	ldr.w	r3, [r3, #148]	; 0x94
 8001428:	4a08      	ldr	r2, [pc, #32]	; (800144c <HAL_RCC_OscConfig+0x4c4>)
 800142a:	f023 0301 	bic.w	r3, r3, #1
 800142e:	f8c2 3094 	str.w	r3, [r2, #148]	; 0x94

      /* Get Start Tick*/
      tickstart = HAL_GetTick();
 8001432:	f7ff fa8b 	bl	800094c <HAL_GetTick>
 8001436:	61b8      	str	r0, [r7, #24]

      /* Wait till LSI is disabled */
      while(READ_BIT(RCC->CSR, RCC_CSR_LSIRDY) != 0U)
 8001438:	e00a      	b.n	8001450 <HAL_RCC_OscConfig+0x4c8>
      {
        if((HAL_GetTick() - tickstart) > LSI_TIMEOUT_VALUE)
 800143a:	f7ff fa87 	bl	800094c <HAL_GetTick>
 800143e:	4602      	mov	r2, r0
 8001440:	69bb      	ldr	r3, [r7, #24]
 8001442:	1ad3      	subs	r3, r2, r3
 8001444:	2b11      	cmp	r3, #17
 8001446:	d903      	bls.n	8001450 <HAL_RCC_OscConfig+0x4c8>
        {
          return HAL_TIMEOUT;
 8001448:	2303      	movs	r3, #3
 800144a:	e1f6      	b.n	800183a <HAL_RCC_OscConfig+0x8b2>
 800144c:	40021000 	.word	0x40021000
      while(READ_BIT(RCC->CSR, RCC_CSR_LSIRDY) != 0U)
 8001450:	4ba9      	ldr	r3, [pc, #676]	; (80016f8 <HAL_RCC_OscConfig+0x770>)
 8001452:	f8d3 3094 	ldr.w	r3, [r3, #148]	; 0x94
 8001456:	f003 0302 	and.w	r3, r3, #2
 800145a:	2b00      	cmp	r3, #0
 800145c:	d1ed      	bne.n	800143a <HAL_RCC_OscConfig+0x4b2>
        }
      }
    }
  }
  /*------------------------------ LSE Configuration -------------------------*/
  if(((RCC_OscInitStruct->OscillatorType) & RCC_OSCILLATORTYPE_LSE) == RCC_OSCILLATORTYPE_LSE)
 800145e:	687b      	ldr	r3, [r7, #4]
 8001460:	681b      	ldr	r3, [r3, #0]
 8001462:	f003 0304 	and.w	r3, r3, #4
 8001466:	2b00      	cmp	r3, #0
 8001468:	f000 80bd 	beq.w	80015e6 <HAL_RCC_OscConfig+0x65e>
  {
    FlagStatus       pwrclkchanged = RESET;
 800146c:	2300      	movs	r3, #0
 800146e:	f887 3027 	strb.w	r3, [r7, #39]	; 0x27
    /* Check the parameters */
    assert_param(IS_RCC_LSE(RCC_OscInitStruct->LSEState));

    /* Update LSE configuration in Backup Domain control register    */
    /* Requires to enable write access to Backup Domain of necessary */
    if(HAL_IS_BIT_CLR(RCC->APB1ENR1, RCC_APB1ENR1_PWREN))
 8001472:	4ba1      	ldr	r3, [pc, #644]	; (80016f8 <HAL_RCC_OscConfig+0x770>)
 8001474:	6d9b      	ldr	r3, [r3, #88]	; 0x58
 8001476:	f003 5380 	and.w	r3, r3, #268435456	; 0x10000000
 800147a:	2b00      	cmp	r3, #0
 800147c:	d10e      	bne.n	800149c <HAL_RCC_OscConfig+0x514>
    {
      __HAL_RCC_PWR_CLK_ENABLE();
 800147e:	4b9e      	ldr	r3, [pc, #632]	; (80016f8 <HAL_RCC_OscConfig+0x770>)
 8001480:	6d9b      	ldr	r3, [r3, #88]	; 0x58
 8001482:	4a9d      	ldr	r2, [pc, #628]	; (80016f8 <HAL_RCC_OscConfig+0x770>)
 8001484:	f043 5380 	orr.w	r3, r3, #268435456	; 0x10000000
 8001488:	6593      	str	r3, [r2, #88]	; 0x58
 800148a:	4b9b      	ldr	r3, [pc, #620]	; (80016f8 <HAL_RCC_OscConfig+0x770>)
 800148c:	6d9b      	ldr	r3, [r3, #88]	; 0x58
 800148e:	f003 5380 	and.w	r3, r3, #268435456	; 0x10000000
 8001492:	60fb      	str	r3, [r7, #12]
 8001494:	68fb      	ldr	r3, [r7, #12]
      pwrclkchanged = SET;
 8001496:	2301      	movs	r3, #1
 8001498:	f887 3027 	strb.w	r3, [r7, #39]	; 0x27
    }

    if(HAL_IS_BIT_CLR(PWR->CR1, PWR_CR1_DBP))
 800149c:	4b97      	ldr	r3, [pc, #604]	; (80016fc <HAL_RCC_OscConfig+0x774>)
 800149e:	681b      	ldr	r3, [r3, #0]
 80014a0:	f403 7380 	and.w	r3, r3, #256	; 0x100
 80014a4:	2b00      	cmp	r3, #0
 80014a6:	d118      	bne.n	80014da <HAL_RCC_OscConfig+0x552>
    {
      /* Enable write access to Backup domain */
      SET_BIT(PWR->CR1, PWR_CR1_DBP);
 80014a8:	4b94      	ldr	r3, [pc, #592]	; (80016fc <HAL_RCC_OscConfig+0x774>)
 80014aa:	681b      	ldr	r3, [r3, #0]
 80014ac:	4a93      	ldr	r2, [pc, #588]	; (80016fc <HAL_RCC_OscConfig+0x774>)
 80014ae:	f443 7380 	orr.w	r3, r3, #256	; 0x100
 80014b2:	6013      	str	r3, [r2, #0]

      /* Wait for Backup domain Write protection disable */
      tickstart = HAL_GetTick();
 80014b4:	f7ff fa4a 	bl	800094c <HAL_GetTick>
 80014b8:	61b8      	str	r0, [r7, #24]

      while(HAL_IS_BIT_CLR(PWR->CR1, PWR_CR1_DBP))
 80014ba:	e008      	b.n	80014ce <HAL_RCC_OscConfig+0x546>
      {
        if((HAL_GetTick() - tickstart) > RCC_DBP_TIMEOUT_VALUE)
 80014bc:	f7ff fa46 	bl	800094c <HAL_GetTick>
 80014c0:	4602      	mov	r2, r0
 80014c2:	69bb      	ldr	r3, [r7, #24]
 80014c4:	1ad3      	subs	r3, r2, r3
 80014c6:	2b02      	cmp	r3, #2
 80014c8:	d901      	bls.n	80014ce <HAL_RCC_OscConfig+0x546>
        {
          return HAL_TIMEOUT;
 80014ca:	2303      	movs	r3, #3
 80014cc:	e1b5      	b.n	800183a <HAL_RCC_OscConfig+0x8b2>
      while(HAL_IS_BIT_CLR(PWR->CR1, PWR_CR1_DBP))
 80014ce:	4b8b      	ldr	r3, [pc, #556]	; (80016fc <HAL_RCC_OscConfig+0x774>)
 80014d0:	681b      	ldr	r3, [r3, #0]
 80014d2:	f403 7380 	and.w	r3, r3, #256	; 0x100
 80014d6:	2b00      	cmp	r3, #0
 80014d8:	d0f0      	beq.n	80014bc <HAL_RCC_OscConfig+0x534>
      }
    }

    /* Set the new LSE configuration -----------------------------------------*/
#if defined(RCC_BDCR_LSESYSDIS)
    if((RCC_OscInitStruct->LSEState & RCC_BDCR_LSEON) != 0U)
 80014da:	687b      	ldr	r3, [r7, #4]
 80014dc:	689b      	ldr	r3, [r3, #8]
 80014de:	f003 0301 	and.w	r3, r3, #1
 80014e2:	2b00      	cmp	r3, #0
 80014e4:	d02c      	beq.n	8001540 <HAL_RCC_OscConfig+0x5b8>
    {
      /* Set LSESYSDIS bit according to LSE propagation option (enabled or disabled) */
      MODIFY_REG(RCC->BDCR, RCC_BDCR_LSESYSDIS, (RCC_OscInitStruct->LSEState & RCC_BDCR_LSESYSDIS));
 80014e6:	4b84      	ldr	r3, [pc, #528]	; (80016f8 <HAL_RCC_OscConfig+0x770>)
 80014e8:	f8d3 3090 	ldr.w	r3, [r3, #144]	; 0x90
 80014ec:	f023 0280 	bic.w	r2, r3, #128	; 0x80
 80014f0:	687b      	ldr	r3, [r7, #4]
 80014f2:	689b      	ldr	r3, [r3, #8]
 80014f4:	f003 0380 	and.w	r3, r3, #128	; 0x80
 80014f8:	497f      	ldr	r1, [pc, #508]	; (80016f8 <HAL_RCC_OscConfig+0x770>)
 80014fa:	4313      	orrs	r3, r2
 80014fc:	f8c1 3090 	str.w	r3, [r1, #144]	; 0x90

      if((RCC_OscInitStruct->LSEState & RCC_BDCR_LSEBYP) != 0U)
 8001500:	687b      	ldr	r3, [r7, #4]
 8001502:	689b      	ldr	r3, [r3, #8]
 8001504:	f003 0304 	and.w	r3, r3, #4
 8001508:	2b00      	cmp	r3, #0
 800150a:	d010      	beq.n	800152e <HAL_RCC_OscConfig+0x5a6>
      {
        /* LSE oscillator bypass enable */
        SET_BIT(RCC->BDCR, RCC_BDCR_LSEBYP);
 800150c:	4b7a      	ldr	r3, [pc, #488]	; (80016f8 <HAL_RCC_OscConfig+0x770>)
 800150e:	f8d3 3090 	ldr.w	r3, [r3, #144]	; 0x90
 8001512:	4a79      	ldr	r2, [pc, #484]	; (80016f8 <HAL_RCC_OscConfig+0x770>)
 8001514:	f043 0304 	orr.w	r3, r3, #4
 8001518:	f8c2 3090 	str.w	r3, [r2, #144]	; 0x90
        SET_BIT(RCC->BDCR, RCC_BDCR_LSEON);
 800151c:	4b76      	ldr	r3, [pc, #472]	; (80016f8 <HAL_RCC_OscConfig+0x770>)
 800151e:	f8d3 3090 	ldr.w	r3, [r3, #144]	; 0x90
 8001522:	4a75      	ldr	r2, [pc, #468]	; (80016f8 <HAL_RCC_OscConfig+0x770>)
 8001524:	f043 0301 	orr.w	r3, r3, #1
 8001528:	f8c2 3090 	str.w	r3, [r2, #144]	; 0x90
 800152c:	e018      	b.n	8001560 <HAL_RCC_OscConfig+0x5d8>
      }
      else
      {
        /* LSE oscillator enable */
        SET_BIT(RCC->BDCR, RCC_BDCR_LSEON);
 800152e:	4b72      	ldr	r3, [pc, #456]	; (80016f8 <HAL_RCC_OscConfig+0x770>)
 8001530:	f8d3 3090 	ldr.w	r3, [r3, #144]	; 0x90
 8001534:	4a70      	ldr	r2, [pc, #448]	; (80016f8 <HAL_RCC_OscConfig+0x770>)
 8001536:	f043 0301 	orr.w	r3, r3, #1
 800153a:	f8c2 3090 	str.w	r3, [r2, #144]	; 0x90
 800153e:	e00f      	b.n	8001560 <HAL_RCC_OscConfig+0x5d8>
      }
    }
    else
    {
      CLEAR_BIT(RCC->BDCR, RCC_BDCR_LSEON);
 8001540:	4b6d      	ldr	r3, [pc, #436]	; (80016f8 <HAL_RCC_OscConfig+0x770>)
 8001542:	f8d3 3090 	ldr.w	r3, [r3, #144]	; 0x90
 8001546:	4a6c      	ldr	r2, [pc, #432]	; (80016f8 <HAL_RCC_OscConfig+0x770>)
 8001548:	f023 0301 	bic.w	r3, r3, #1
 800154c:	f8c2 3090 	str.w	r3, [r2, #144]	; 0x90
      CLEAR_BIT(RCC->BDCR, RCC_BDCR_LSEBYP);
 8001550:	4b69      	ldr	r3, [pc, #420]	; (80016f8 <HAL_RCC_OscConfig+0x770>)
 8001552:	f8d3 3090 	ldr.w	r3, [r3, #144]	; 0x90
 8001556:	4a68      	ldr	r2, [pc, #416]	; (80016f8 <HAL_RCC_OscConfig+0x770>)
 8001558:	f023 0304 	bic.w	r3, r3, #4
 800155c:	f8c2 3090 	str.w	r3, [r2, #144]	; 0x90
#else
    __HAL_RCC_LSE_CONFIG(RCC_OscInitStruct->LSEState);
#endif /* RCC_BDCR_LSESYSDIS */

    /* Check the LSE State */
    if(RCC_OscInitStruct->LSEState != RCC_LSE_OFF)
 8001560:	687b      	ldr	r3, [r7, #4]
 8001562:	689b      	ldr	r3, [r3, #8]
 8001564:	2b00      	cmp	r3, #0
 8001566:	d016      	beq.n	8001596 <HAL_RCC_OscConfig+0x60e>
    {
      /* Get Start Tick*/
      tickstart = HAL_GetTick();
 8001568:	f7ff f9f0 	bl	800094c <HAL_GetTick>
 800156c:	61b8      	str	r0, [r7, #24]

      /* Wait till LSE is ready */
      while(READ_BIT(RCC->BDCR, RCC_BDCR_LSERDY) == 0U)
 800156e:	e00a      	b.n	8001586 <HAL_RCC_OscConfig+0x5fe>
      {
        if((HAL_GetTick() - tickstart) > RCC_LSE_TIMEOUT_VALUE)
 8001570:	f7ff f9ec 	bl	800094c <HAL_GetTick>
 8001574:	4602      	mov	r2, r0
 8001576:	69bb      	ldr	r3, [r7, #24]
 8001578:	1ad3      	subs	r3, r2, r3
 800157a:	f241 3288 	movw	r2, #5000	; 0x1388
 800157e:	4293      	cmp	r3, r2
 8001580:	d901      	bls.n	8001586 <HAL_RCC_OscConfig+0x5fe>
        {
          return HAL_TIMEOUT;
 8001582:	2303      	movs	r3, #3
 8001584:	e159      	b.n	800183a <HAL_RCC_OscConfig+0x8b2>
      while(READ_BIT(RCC->BDCR, RCC_BDCR_LSERDY) == 0U)
 8001586:	4b5c      	ldr	r3, [pc, #368]	; (80016f8 <HAL_RCC_OscConfig+0x770>)
 8001588:	f8d3 3090 	ldr.w	r3, [r3, #144]	; 0x90
 800158c:	f003 0302 	and.w	r3, r3, #2
 8001590:	2b00      	cmp	r3, #0
 8001592:	d0ed      	beq.n	8001570 <HAL_RCC_OscConfig+0x5e8>
 8001594:	e01d      	b.n	80015d2 <HAL_RCC_OscConfig+0x64a>
      }
    }
    else
    {
      /* Get Start Tick*/
      tickstart = HAL_GetTick();
 8001596:	f7ff f9d9 	bl	800094c <HAL_GetTick>
 800159a:	61b8      	str	r0, [r7, #24]

      /* Wait till LSE is disabled */
      while(READ_BIT(RCC->BDCR, RCC_BDCR_LSERDY) != 0U)
 800159c:	e00a      	b.n	80015b4 <HAL_RCC_OscConfig+0x62c>
      {
        if((HAL_GetTick() - tickstart) > RCC_LSE_TIMEOUT_VALUE)
 800159e:	f7ff f9d5 	bl	800094c <HAL_GetTick>
 80015a2:	4602      	mov	r2, r0
 80015a4:	69bb      	ldr	r3, [r7, #24]
 80015a6:	1ad3      	subs	r3, r2, r3
 80015a8:	f241 3288 	movw	r2, #5000	; 0x1388
 80015ac:	4293      	cmp	r3, r2
 80015ae:	d901      	bls.n	80015b4 <HAL_RCC_OscConfig+0x62c>
        {
          return HAL_TIMEOUT;
 80015b0:	2303      	movs	r3, #3
 80015b2:	e142      	b.n	800183a <HAL_RCC_OscConfig+0x8b2>
      while(READ_BIT(RCC->BDCR, RCC_BDCR_LSERDY) != 0U)
 80015b4:	4b50      	ldr	r3, [pc, #320]	; (80016f8 <HAL_RCC_OscConfig+0x770>)
 80015b6:	f8d3 3090 	ldr.w	r3, [r3, #144]	; 0x90
 80015ba:	f003 0302 	and.w	r3, r3, #2
 80015be:	2b00      	cmp	r3, #0
 80015c0:	d1ed      	bne.n	800159e <HAL_RCC_OscConfig+0x616>
        }
      }

#if defined(RCC_BDCR_LSESYSDIS)
      /* By default, stop disabling LSE propagation */
      CLEAR_BIT(RCC->BDCR, RCC_BDCR_LSESYSDIS);
 80015c2:	4b4d      	ldr	r3, [pc, #308]	; (80016f8 <HAL_RCC_OscConfig+0x770>)
 80015c4:	f8d3 3090 	ldr.w	r3, [r3, #144]	; 0x90
 80015c8:	4a4b      	ldr	r2, [pc, #300]	; (80016f8 <HAL_RCC_OscConfig+0x770>)
 80015ca:	f023 0380 	bic.w	r3, r3, #128	; 0x80
 80015ce:	f8c2 3090 	str.w	r3, [r2, #144]	; 0x90
#endif /* RCC_BDCR_LSESYSDIS */
    }

    /* Restore clock configuration if changed */
    if(pwrclkchanged == SET)
 80015d2:	f897 3027 	ldrb.w	r3, [r7, #39]	; 0x27
 80015d6:	2b01      	cmp	r3, #1
 80015d8:	d105      	bne.n	80015e6 <HAL_RCC_OscConfig+0x65e>
    {
      __HAL_RCC_PWR_CLK_DISABLE();
 80015da:	4b47      	ldr	r3, [pc, #284]	; (80016f8 <HAL_RCC_OscConfig+0x770>)
 80015dc:	6d9b      	ldr	r3, [r3, #88]	; 0x58
 80015de:	4a46      	ldr	r2, [pc, #280]	; (80016f8 <HAL_RCC_OscConfig+0x770>)
 80015e0:	f023 5380 	bic.w	r3, r3, #268435456	; 0x10000000
 80015e4:	6593      	str	r3, [r2, #88]	; 0x58
    }
  }
#if defined(RCC_HSI48_SUPPORT)
  /*------------------------------ HSI48 Configuration -----------------------*/
  if(((RCC_OscInitStruct->OscillatorType) & RCC_OSCILLATORTYPE_HSI48) == RCC_OSCILLATORTYPE_HSI48)
 80015e6:	687b      	ldr	r3, [r7, #4]
 80015e8:	681b      	ldr	r3, [r3, #0]
 80015ea:	f003 0320 	and.w	r3, r3, #32
 80015ee:	2b00      	cmp	r3, #0
 80015f0:	d03c      	beq.n	800166c <HAL_RCC_OscConfig+0x6e4>
  {
    /* Check the parameters */
    assert_param(IS_RCC_HSI48(RCC_OscInitStruct->HSI48State));

    /* Check the LSI State */
    if(RCC_OscInitStruct->HSI48State != RCC_HSI48_OFF)
 80015f2:	687b      	ldr	r3, [r7, #4]
 80015f4:	6a9b      	ldr	r3, [r3, #40]	; 0x28
 80015f6:	2b00      	cmp	r3, #0
 80015f8:	d01c      	beq.n	8001634 <HAL_RCC_OscConfig+0x6ac>
    {
      /* Enable the Internal Low Speed oscillator (HSI48). */
      __HAL_RCC_HSI48_ENABLE();
 80015fa:	4b3f      	ldr	r3, [pc, #252]	; (80016f8 <HAL_RCC_OscConfig+0x770>)
 80015fc:	f8d3 3098 	ldr.w	r3, [r3, #152]	; 0x98
 8001600:	4a3d      	ldr	r2, [pc, #244]	; (80016f8 <HAL_RCC_OscConfig+0x770>)
 8001602:	f043 0301 	orr.w	r3, r3, #1
 8001606:	f8c2 3098 	str.w	r3, [r2, #152]	; 0x98

      /* Get Start Tick*/
      tickstart = HAL_GetTick();
 800160a:	f7ff f99f 	bl	800094c <HAL_GetTick>
 800160e:	61b8      	str	r0, [r7, #24]

      /* Wait till HSI48 is ready */
      while(READ_BIT(RCC->CRRCR, RCC_CRRCR_HSI48RDY) == 0U)
 8001610:	e008      	b.n	8001624 <HAL_RCC_OscConfig+0x69c>
      {
        if((HAL_GetTick() - tickstart) > HSI48_TIMEOUT_VALUE)
 8001612:	f7ff f99b 	bl	800094c <HAL_GetTick>
 8001616:	4602      	mov	r2, r0
 8001618:	69bb      	ldr	r3, [r7, #24]
 800161a:	1ad3      	subs	r3, r2, r3
 800161c:	2b02      	cmp	r3, #2
 800161e:	d901      	bls.n	8001624 <HAL_RCC_OscConfig+0x69c>
        {
          return HAL_TIMEOUT;
 8001620:	2303      	movs	r3, #3
 8001622:	e10a      	b.n	800183a <HAL_RCC_OscConfig+0x8b2>
      while(READ_BIT(RCC->CRRCR, RCC_CRRCR_HSI48RDY) == 0U)
 8001624:	4b34      	ldr	r3, [pc, #208]	; (80016f8 <HAL_RCC_OscConfig+0x770>)
 8001626:	f8d3 3098 	ldr.w	r3, [r3, #152]	; 0x98
 800162a:	f003 0302 	and.w	r3, r3, #2
 800162e:	2b00      	cmp	r3, #0
 8001630:	d0ef      	beq.n	8001612 <HAL_RCC_OscConfig+0x68a>
 8001632:	e01b      	b.n	800166c <HAL_RCC_OscConfig+0x6e4>
      }
    }
    else
    {
      /* Disable the Internal Low Speed oscillator (HSI48). */
      __HAL_RCC_HSI48_DISABLE();
 8001634:	4b30      	ldr	r3, [pc, #192]	; (80016f8 <HAL_RCC_OscConfig+0x770>)
 8001636:	f8d3 3098 	ldr.w	r3, [r3, #152]	; 0x98
 800163a:	4a2f      	ldr	r2, [pc, #188]	; (80016f8 <HAL_RCC_OscConfig+0x770>)
 800163c:	f023 0301 	bic.w	r3, r3, #1
 8001640:	f8c2 3098 	str.w	r3, [r2, #152]	; 0x98

      /* Get Start Tick*/
      tickstart = HAL_GetTick();
 8001644:	f7ff f982 	bl	800094c <HAL_GetTick>
 8001648:	61b8      	str	r0, [r7, #24]

      /* Wait till HSI48 is disabled */
      while(READ_BIT(RCC->CRRCR, RCC_CRRCR_HSI48RDY) != 0U)
 800164a:	e008      	b.n	800165e <HAL_RCC_OscConfig+0x6d6>
      {
        if((HAL_GetTick() - tickstart) > HSI48_TIMEOUT_VALUE)
 800164c:	f7ff f97e 	bl	800094c <HAL_GetTick>
 8001650:	4602      	mov	r2, r0
 8001652:	69bb      	ldr	r3, [r7, #24]
 8001654:	1ad3      	subs	r3, r2, r3
 8001656:	2b02      	cmp	r3, #2
 8001658:	d901      	bls.n	800165e <HAL_RCC_OscConfig+0x6d6>
        {
          return HAL_TIMEOUT;
 800165a:	2303      	movs	r3, #3
 800165c:	e0ed      	b.n	800183a <HAL_RCC_OscConfig+0x8b2>
      while(READ_BIT(RCC->CRRCR, RCC_CRRCR_HSI48RDY) != 0U)
 800165e:	4b26      	ldr	r3, [pc, #152]	; (80016f8 <HAL_RCC_OscConfig+0x770>)
 8001660:	f8d3 3098 	ldr.w	r3, [r3, #152]	; 0x98
 8001664:	f003 0302 	and.w	r3, r3, #2
 8001668:	2b00      	cmp	r3, #0
 800166a:	d1ef      	bne.n	800164c <HAL_RCC_OscConfig+0x6c4>
#endif /* RCC_HSI48_SUPPORT */
  /*-------------------------------- PLL Configuration -----------------------*/
  /* Check the parameters */
  assert_param(IS_RCC_PLL(RCC_OscInitStruct->PLL.PLLState));

  if(RCC_OscInitStruct->PLL.PLLState != RCC_PLL_NONE)
 800166c:	687b      	ldr	r3, [r7, #4]
 800166e:	6adb      	ldr	r3, [r3, #44]	; 0x2c
 8001670:	2b00      	cmp	r3, #0
 8001672:	f000 80e1 	beq.w	8001838 <HAL_RCC_OscConfig+0x8b0>
  {
    /* PLL On ? */
    if(RCC_OscInitStruct->PLL.PLLState == RCC_PLL_ON)
 8001676:	687b      	ldr	r3, [r7, #4]
 8001678:	6adb      	ldr	r3, [r3, #44]	; 0x2c
 800167a:	2b02      	cmp	r3, #2
 800167c:	f040 80b5 	bne.w	80017ea <HAL_RCC_OscConfig+0x862>
#endif /* RCC_PLLP_SUPPORT */
      assert_param(IS_RCC_PLLQ_VALUE(RCC_OscInitStruct->PLL.PLLQ));
      assert_param(IS_RCC_PLLR_VALUE(RCC_OscInitStruct->PLL.PLLR));

      /* Do nothing if PLL configuration is the unchanged */
      pll_config = RCC->PLLCFGR;
 8001680:	4b1d      	ldr	r3, [pc, #116]	; (80016f8 <HAL_RCC_OscConfig+0x770>)
 8001682:	68db      	ldr	r3, [r3, #12]
 8001684:	61fb      	str	r3, [r7, #28]
      if((READ_BIT(pll_config, RCC_PLLCFGR_PLLSRC)  != RCC_OscInitStruct->PLL.PLLSource) ||
 8001686:	69fb      	ldr	r3, [r7, #28]
 8001688:	f003 0203 	and.w	r2, r3, #3
 800168c:	687b      	ldr	r3, [r7, #4]
 800168e:	6b1b      	ldr	r3, [r3, #48]	; 0x30
 8001690:	429a      	cmp	r2, r3
 8001692:	d124      	bne.n	80016de <HAL_RCC_OscConfig+0x756>
         (READ_BIT(pll_config, RCC_PLLCFGR_PLLM)    != ((RCC_OscInitStruct->PLL.PLLM - 1U) << RCC_PLLCFGR_PLLM_Pos)) ||
 8001694:	69fb      	ldr	r3, [r7, #28]
 8001696:	f003 0270 	and.w	r2, r3, #112	; 0x70
 800169a:	687b      	ldr	r3, [r7, #4]
 800169c:	6b5b      	ldr	r3, [r3, #52]	; 0x34
 800169e:	3b01      	subs	r3, #1
 80016a0:	011b      	lsls	r3, r3, #4
      if((READ_BIT(pll_config, RCC_PLLCFGR_PLLSRC)  != RCC_OscInitStruct->PLL.PLLSource) ||
 80016a2:	429a      	cmp	r2, r3
 80016a4:	d11b      	bne.n	80016de <HAL_RCC_OscConfig+0x756>
         (READ_BIT(pll_config, RCC_PLLCFGR_PLLN)    != (RCC_OscInitStruct->PLL.PLLN << RCC_PLLCFGR_PLLN_Pos)) ||
 80016a6:	69fb      	ldr	r3, [r7, #28]
 80016a8:	f403 42fe 	and.w	r2, r3, #32512	; 0x7f00
 80016ac:	687b      	ldr	r3, [r7, #4]
 80016ae:	6b9b      	ldr	r3, [r3, #56]	; 0x38
 80016b0:	021b      	lsls	r3, r3, #8
         (READ_BIT(pll_config, RCC_PLLCFGR_PLLM)    != ((RCC_OscInitStruct->PLL.PLLM - 1U) << RCC_PLLCFGR_PLLM_Pos)) ||
 80016b2:	429a      	cmp	r2, r3
 80016b4:	d113      	bne.n	80016de <HAL_RCC_OscConfig+0x756>
         (READ_BIT(pll_config, RCC_PLLCFGR_PLLPDIV) != (RCC_OscInitStruct->PLL.PLLP << RCC_PLLCFGR_PLLPDIV_Pos)) ||
#else
         (READ_BIT(pll_config, RCC_PLLCFGR_PLLP)    != ((RCC_OscInitStruct->PLL.PLLP == RCC_PLLP_DIV7) ? 0U : 1U)) ||
#endif
#endif
         (READ_BIT(pll_config, RCC_PLLCFGR_PLLQ)    != ((((RCC_OscInitStruct->PLL.PLLQ) >> 1U) - 1U) << RCC_PLLCFGR_PLLQ_Pos)) ||
 80016b6:	69fb      	ldr	r3, [r7, #28]
 80016b8:	f403 02c0 	and.w	r2, r3, #6291456	; 0x600000
 80016bc:	687b      	ldr	r3, [r7, #4]
 80016be:	6bdb      	ldr	r3, [r3, #60]	; 0x3c
 80016c0:	085b      	lsrs	r3, r3, #1
 80016c2:	3b01      	subs	r3, #1
 80016c4:	055b      	lsls	r3, r3, #21
         (READ_BIT(pll_config, RCC_PLLCFGR_PLLN)    != (RCC_OscInitStruct->PLL.PLLN << RCC_PLLCFGR_PLLN_Pos)) ||
 80016c6:	429a      	cmp	r2, r3
 80016c8:	d109      	bne.n	80016de <HAL_RCC_OscConfig+0x756>
         (READ_BIT(pll_config, RCC_PLLCFGR_PLLR)    != ((((RCC_OscInitStruct->PLL.PLLR) >> 1U) - 1U) << RCC_PLLCFGR_PLLR_Pos)))
 80016ca:	69fb      	ldr	r3, [r7, #28]
 80016cc:	f003 62c0 	and.w	r2, r3, #100663296	; 0x6000000
 80016d0:	687b      	ldr	r3, [r7, #4]
 80016d2:	6c1b      	ldr	r3, [r3, #64]	; 0x40
 80016d4:	085b      	lsrs	r3, r3, #1
 80016d6:	3b01      	subs	r3, #1
 80016d8:	065b      	lsls	r3, r3, #25
         (READ_BIT(pll_config, RCC_PLLCFGR_PLLQ)    != ((((RCC_OscInitStruct->PLL.PLLQ) >> 1U) - 1U) << RCC_PLLCFGR_PLLQ_Pos)) ||
 80016da:	429a      	cmp	r2, r3
 80016dc:	d05f      	beq.n	800179e <HAL_RCC_OscConfig+0x816>
      {
        /* Check if the PLL is used as system clock or not */
        if(sysclk_source != RCC_CFGR_SWS_PLL)
 80016de:	6a3b      	ldr	r3, [r7, #32]
 80016e0:	2b0c      	cmp	r3, #12
 80016e2:	d05a      	beq.n	800179a <HAL_RCC_OscConfig+0x812>
          }
          else
#endif /* RCC_PLLSAI1_SUPPORT || RCC_PLLSAI2_SUPPORT */
          {
            /* Disable the main PLL. */
            __HAL_RCC_PLL_DISABLE();
 80016e4:	4b04      	ldr	r3, [pc, #16]	; (80016f8 <HAL_RCC_OscConfig+0x770>)
 80016e6:	681b      	ldr	r3, [r3, #0]
 80016e8:	4a03      	ldr	r2, [pc, #12]	; (80016f8 <HAL_RCC_OscConfig+0x770>)
 80016ea:	f023 7380 	bic.w	r3, r3, #16777216	; 0x1000000
 80016ee:	6013      	str	r3, [r2, #0]

            /* Get Start Tick*/
            tickstart = HAL_GetTick();
 80016f0:	f7ff f92c 	bl	800094c <HAL_GetTick>
 80016f4:	61b8      	str	r0, [r7, #24]

            /* Wait till PLL is ready */
            while(READ_BIT(RCC->CR, RCC_CR_PLLRDY) != 0U)
 80016f6:	e00c      	b.n	8001712 <HAL_RCC_OscConfig+0x78a>
 80016f8:	40021000 	.word	0x40021000
 80016fc:	40007000 	.word	0x40007000
            {
              if((HAL_GetTick() - tickstart) > PLL_TIMEOUT_VALUE)
 8001700:	f7ff f924 	bl	800094c <HAL_GetTick>
 8001704:	4602      	mov	r2, r0
 8001706:	69bb      	ldr	r3, [r7, #24]
 8001708:	1ad3      	subs	r3, r2, r3
 800170a:	2b02      	cmp	r3, #2
 800170c:	d901      	bls.n	8001712 <HAL_RCC_OscConfig+0x78a>
              {
                return HAL_TIMEOUT;
 800170e:	2303      	movs	r3, #3
 8001710:	e093      	b.n	800183a <HAL_RCC_OscConfig+0x8b2>
            while(READ_BIT(RCC->CR, RCC_CR_PLLRDY) != 0U)
 8001712:	4b4c      	ldr	r3, [pc, #304]	; (8001844 <HAL_RCC_OscConfig+0x8bc>)
 8001714:	681b      	ldr	r3, [r3, #0]
 8001716:	f003 7300 	and.w	r3, r3, #33554432	; 0x2000000
 800171a:	2b00      	cmp	r3, #0
 800171c:	d1f0      	bne.n	8001700 <HAL_RCC_OscConfig+0x778>
                                 RCC_OscInitStruct->PLL.PLLN,
                                 RCC_OscInitStruct->PLL.PLLP,
                                 RCC_OscInitStruct->PLL.PLLQ,
                                 RCC_OscInitStruct->PLL.PLLR);
#else
            __HAL_RCC_PLL_CONFIG(RCC_OscInitStruct->PLL.PLLSource,
 800171e:	4b49      	ldr	r3, [pc, #292]	; (8001844 <HAL_RCC_OscConfig+0x8bc>)
 8001720:	68da      	ldr	r2, [r3, #12]
 8001722:	4b49      	ldr	r3, [pc, #292]	; (8001848 <HAL_RCC_OscConfig+0x8c0>)
 8001724:	4013      	ands	r3, r2
 8001726:	687a      	ldr	r2, [r7, #4]
 8001728:	6b11      	ldr	r1, [r2, #48]	; 0x30
 800172a:	687a      	ldr	r2, [r7, #4]
 800172c:	6b52      	ldr	r2, [r2, #52]	; 0x34
 800172e:	3a01      	subs	r2, #1
 8001730:	0112      	lsls	r2, r2, #4
 8001732:	4311      	orrs	r1, r2
 8001734:	687a      	ldr	r2, [r7, #4]
 8001736:	6b92      	ldr	r2, [r2, #56]	; 0x38
 8001738:	0212      	lsls	r2, r2, #8
 800173a:	4311      	orrs	r1, r2
 800173c:	687a      	ldr	r2, [r7, #4]
 800173e:	6bd2      	ldr	r2, [r2, #60]	; 0x3c
 8001740:	0852      	lsrs	r2, r2, #1
 8001742:	3a01      	subs	r2, #1
 8001744:	0552      	lsls	r2, r2, #21
 8001746:	4311      	orrs	r1, r2
 8001748:	687a      	ldr	r2, [r7, #4]
 800174a:	6c12      	ldr	r2, [r2, #64]	; 0x40
 800174c:	0852      	lsrs	r2, r2, #1
 800174e:	3a01      	subs	r2, #1
 8001750:	0652      	lsls	r2, r2, #25
 8001752:	430a      	orrs	r2, r1
 8001754:	493b      	ldr	r1, [pc, #236]	; (8001844 <HAL_RCC_OscConfig+0x8bc>)
 8001756:	4313      	orrs	r3, r2
 8001758:	60cb      	str	r3, [r1, #12]
                                 RCC_OscInitStruct->PLL.PLLQ,
                                 RCC_OscInitStruct->PLL.PLLR);
#endif

            /* Enable the main PLL. */
            __HAL_RCC_PLL_ENABLE();
 800175a:	4b3a      	ldr	r3, [pc, #232]	; (8001844 <HAL_RCC_OscConfig+0x8bc>)
 800175c:	681b      	ldr	r3, [r3, #0]
 800175e:	4a39      	ldr	r2, [pc, #228]	; (8001844 <HAL_RCC_OscConfig+0x8bc>)
 8001760:	f043 7380 	orr.w	r3, r3, #16777216	; 0x1000000
 8001764:	6013      	str	r3, [r2, #0]

            /* Enable PLL System Clock output. */
            __HAL_RCC_PLLCLKOUT_ENABLE(RCC_PLL_SYSCLK);
 8001766:	4b37      	ldr	r3, [pc, #220]	; (8001844 <HAL_RCC_OscConfig+0x8bc>)
 8001768:	68db      	ldr	r3, [r3, #12]
 800176a:	4a36      	ldr	r2, [pc, #216]	; (8001844 <HAL_RCC_OscConfig+0x8bc>)
 800176c:	f043 7380 	orr.w	r3, r3, #16777216	; 0x1000000
 8001770:	60d3      	str	r3, [r2, #12]

            /* Get Start Tick*/
            tickstart = HAL_GetTick();
 8001772:	f7ff f8eb 	bl	800094c <HAL_GetTick>
 8001776:	61b8      	str	r0, [r7, #24]

            /* Wait till PLL is ready */
            while(READ_BIT(RCC->CR, RCC_CR_PLLRDY) == 0U)
 8001778:	e008      	b.n	800178c <HAL_RCC_OscConfig+0x804>
            {
              if((HAL_GetTick() - tickstart) > PLL_TIMEOUT_VALUE)
 800177a:	f7ff f8e7 	bl	800094c <HAL_GetTick>
 800177e:	4602      	mov	r2, r0
 8001780:	69bb      	ldr	r3, [r7, #24]
 8001782:	1ad3      	subs	r3, r2, r3
 8001784:	2b02      	cmp	r3, #2
 8001786:	d901      	bls.n	800178c <HAL_RCC_OscConfig+0x804>
              {
                return HAL_TIMEOUT;
 8001788:	2303      	movs	r3, #3
 800178a:	e056      	b.n	800183a <HAL_RCC_OscConfig+0x8b2>
            while(READ_BIT(RCC->CR, RCC_CR_PLLRDY) == 0U)
 800178c:	4b2d      	ldr	r3, [pc, #180]	; (8001844 <HAL_RCC_OscConfig+0x8bc>)
 800178e:	681b      	ldr	r3, [r3, #0]
 8001790:	f003 7300 	and.w	r3, r3, #33554432	; 0x2000000
 8001794:	2b00      	cmp	r3, #0
 8001796:	d0f0      	beq.n	800177a <HAL_RCC_OscConfig+0x7f2>
        if(sysclk_source != RCC_CFGR_SWS_PLL)
 8001798:	e04e      	b.n	8001838 <HAL_RCC_OscConfig+0x8b0>
          }
        }
        else
        {
          /* PLL is already used as System core clock */
          return HAL_ERROR;
 800179a:	2301      	movs	r3, #1
 800179c:	e04d      	b.n	800183a <HAL_RCC_OscConfig+0x8b2>
      }
      else
      {
        /* PLL configuration is unchanged */
        /* Re-enable PLL if it was disabled (ie. low power mode) */
        if(READ_BIT(RCC->CR, RCC_CR_PLLRDY) == 0U)
 800179e:	4b29      	ldr	r3, [pc, #164]	; (8001844 <HAL_RCC_OscConfig+0x8bc>)
 80017a0:	681b      	ldr	r3, [r3, #0]
 80017a2:	f003 7300 	and.w	r3, r3, #33554432	; 0x2000000
 80017a6:	2b00      	cmp	r3, #0
 80017a8:	d146      	bne.n	8001838 <HAL_RCC_OscConfig+0x8b0>
        {
          /* Enable the main PLL. */
          __HAL_RCC_PLL_ENABLE();
 80017aa:	4b26      	ldr	r3, [pc, #152]	; (8001844 <HAL_RCC_OscConfig+0x8bc>)
 80017ac:	681b      	ldr	r3, [r3, #0]
 80017ae:	4a25      	ldr	r2, [pc, #148]	; (8001844 <HAL_RCC_OscConfig+0x8bc>)
 80017b0:	f043 7380 	orr.w	r3, r3, #16777216	; 0x1000000
 80017b4:	6013      	str	r3, [r2, #0]

          /* Enable PLL System Clock output. */
          __HAL_RCC_PLLCLKOUT_ENABLE(RCC_PLL_SYSCLK);
 80017b6:	4b23      	ldr	r3, [pc, #140]	; (8001844 <HAL_RCC_OscConfig+0x8bc>)
 80017b8:	68db      	ldr	r3, [r3, #12]
 80017ba:	4a22      	ldr	r2, [pc, #136]	; (8001844 <HAL_RCC_OscConfig+0x8bc>)
 80017bc:	f043 7380 	orr.w	r3, r3, #16777216	; 0x1000000
 80017c0:	60d3      	str	r3, [r2, #12]

          /* Get Start Tick*/
          tickstart = HAL_GetTick();
 80017c2:	f7ff f8c3 	bl	800094c <HAL_GetTick>
 80017c6:	61b8      	str	r0, [r7, #24]

          /* Wait till PLL is ready */
          while(READ_BIT(RCC->CR, RCC_CR_PLLRDY) == 0U)
 80017c8:	e008      	b.n	80017dc <HAL_RCC_OscConfig+0x854>
          {
            if((HAL_GetTick() - tickstart) > PLL_TIMEOUT_VALUE)
 80017ca:	f7ff f8bf 	bl	800094c <HAL_GetTick>
 80017ce:	4602      	mov	r2, r0
 80017d0:	69bb      	ldr	r3, [r7, #24]
 80017d2:	1ad3      	subs	r3, r2, r3
 80017d4:	2b02      	cmp	r3, #2
 80017d6:	d901      	bls.n	80017dc <HAL_RCC_OscConfig+0x854>
            {
              return HAL_TIMEOUT;
 80017d8:	2303      	movs	r3, #3
 80017da:	e02e      	b.n	800183a <HAL_RCC_OscConfig+0x8b2>
          while(READ_BIT(RCC->CR, RCC_CR_PLLRDY) == 0U)
 80017dc:	4b19      	ldr	r3, [pc, #100]	; (8001844 <HAL_RCC_OscConfig+0x8bc>)
 80017de:	681b      	ldr	r3, [r3, #0]
 80017e0:	f003 7300 	and.w	r3, r3, #33554432	; 0x2000000
 80017e4:	2b00      	cmp	r3, #0
 80017e6:	d0f0      	beq.n	80017ca <HAL_RCC_OscConfig+0x842>
 80017e8:	e026      	b.n	8001838 <HAL_RCC_OscConfig+0x8b0>
      }
    }
    else
    {
      /* Check that PLL is not used as system clock or not */
      if(sysclk_source != RCC_CFGR_SWS_PLL)
 80017ea:	6a3b      	ldr	r3, [r7, #32]
 80017ec:	2b0c      	cmp	r3, #12
 80017ee:	d021      	beq.n	8001834 <HAL_RCC_OscConfig+0x8ac>
      {
        /* Disable the main PLL. */
        __HAL_RCC_PLL_DISABLE();
 80017f0:	4b14      	ldr	r3, [pc, #80]	; (8001844 <HAL_RCC_OscConfig+0x8bc>)
 80017f2:	681b      	ldr	r3, [r3, #0]
 80017f4:	4a13      	ldr	r2, [pc, #76]	; (8001844 <HAL_RCC_OscConfig+0x8bc>)
 80017f6:	f023 7380 	bic.w	r3, r3, #16777216	; 0x1000000
 80017fa:	6013      	str	r3, [r2, #0]

        /* Get Start Tick*/
        tickstart = HAL_GetTick();
 80017fc:	f7ff f8a6 	bl	800094c <HAL_GetTick>
 8001800:	61b8      	str	r0, [r7, #24]

        /* Wait till PLL is disabled */
        while(READ_BIT(RCC->CR, RCC_CR_PLLRDY) != 0U)
 8001802:	e008      	b.n	8001816 <HAL_RCC_OscConfig+0x88e>
        {
          if((HAL_GetTick() - tickstart) > PLL_TIMEOUT_VALUE)
 8001804:	f7ff f8a2 	bl	800094c <HAL_GetTick>
 8001808:	4602      	mov	r2, r0
 800180a:	69bb      	ldr	r3, [r7, #24]
 800180c:	1ad3      	subs	r3, r2, r3
 800180e:	2b02      	cmp	r3, #2
 8001810:	d901      	bls.n	8001816 <HAL_RCC_OscConfig+0x88e>
          {
            return HAL_TIMEOUT;
 8001812:	2303      	movs	r3, #3
 8001814:	e011      	b.n	800183a <HAL_RCC_OscConfig+0x8b2>
        while(READ_BIT(RCC->CR, RCC_CR_PLLRDY) != 0U)
 8001816:	4b0b      	ldr	r3, [pc, #44]	; (8001844 <HAL_RCC_OscConfig+0x8bc>)
 8001818:	681b      	ldr	r3, [r3, #0]
 800181a:	f003 7300 	and.w	r3, r3, #33554432	; 0x2000000
 800181e:	2b00      	cmp	r3, #0
 8001820:	d1f0      	bne.n	8001804 <HAL_RCC_OscConfig+0x87c>
#if defined(RCC_PLLSAI2_SUPPORT)
        RCC->PLLCFGR &= ~(RCC_PLLCFGR_PLLSRC | RCC_PLL_SYSCLK | RCC_PLL_48M1CLK | RCC_PLL_SAI3CLK);
#elif defined(RCC_PLLSAI1_SUPPORT)
        RCC->PLLCFGR &= ~(RCC_PLLCFGR_PLLSRC | RCC_PLL_SYSCLK | RCC_PLL_48M1CLK | RCC_PLL_SAI2CLK);
#else
        RCC->PLLCFGR &= ~(RCC_PLLCFGR_PLLSRC | RCC_PLL_SYSCLK | RCC_PLL_48M1CLK);
 8001822:	4b08      	ldr	r3, [pc, #32]	; (8001844 <HAL_RCC_OscConfig+0x8bc>)
 8001824:	68db      	ldr	r3, [r3, #12]
 8001826:	4a07      	ldr	r2, [pc, #28]	; (8001844 <HAL_RCC_OscConfig+0x8bc>)
 8001828:	f023 7388 	bic.w	r3, r3, #17825792	; 0x1100000
 800182c:	f023 0303 	bic.w	r3, r3, #3
 8001830:	60d3      	str	r3, [r2, #12]
 8001832:	e001      	b.n	8001838 <HAL_RCC_OscConfig+0x8b0>
#endif /* RCC_PLLSAI2_SUPPORT */
      }
      else
      {
        /* PLL is already used as System core clock */
        return HAL_ERROR;
 8001834:	2301      	movs	r3, #1
 8001836:	e000      	b.n	800183a <HAL_RCC_OscConfig+0x8b2>
      }
    }
  }
  return HAL_OK;
 8001838:	2300      	movs	r3, #0
}
 800183a:	4618      	mov	r0, r3
 800183c:	3728      	adds	r7, #40	; 0x28
 800183e:	46bd      	mov	sp, r7
 8001840:	bd80      	pop	{r7, pc}
 8001842:	bf00      	nop
 8001844:	40021000 	.word	0x40021000
 8001848:	f99f808c 	.word	0xf99f808c

0800184c <HAL_RCC_ClockConfig>:
  *         HPRE[3:0] bits to ensure that HCLK not exceed the maximum allowed frequency
  *         (for more details refer to section above "Initialization/de-initialization functions")
  * @retval None
  */
HAL_StatusTypeDef HAL_RCC_ClockConfig(RCC_ClkInitTypeDef  *RCC_ClkInitStruct, uint32_t FLatency)
{
 800184c:	b580      	push	{r7, lr}
 800184e:	b084      	sub	sp, #16
 8001850:	af00      	add	r7, sp, #0
 8001852:	6078      	str	r0, [r7, #4]
 8001854:	6039      	str	r1, [r7, #0]
  uint32_t hpre = RCC_SYSCLK_DIV1;
#endif
  HAL_StatusTypeDef status;

  /* Check Null pointer */
  if(RCC_ClkInitStruct == NULL)
 8001856:	687b      	ldr	r3, [r7, #4]
 8001858:	2b00      	cmp	r3, #0
 800185a:	d101      	bne.n	8001860 <HAL_RCC_ClockConfig+0x14>
  {
    return HAL_ERROR;
 800185c:	2301      	movs	r3, #1
 800185e:	e0e7      	b.n	8001a30 <HAL_RCC_ClockConfig+0x1e4>
  /* To correctly read data from FLASH memory, the number of wait states (LATENCY)
    must be correctly programmed according to the frequency of the CPU clock
    (HCLK) and the supply voltage of the device. */

  /* Increasing the number of wait states because of higher CPU frequency */
  if(FLatency > __HAL_FLASH_GET_LATENCY())
 8001860:	4b75      	ldr	r3, [pc, #468]	; (8001a38 <HAL_RCC_ClockConfig+0x1ec>)
 8001862:	681b      	ldr	r3, [r3, #0]
 8001864:	f003 0307 	and.w	r3, r3, #7
 8001868:	683a      	ldr	r2, [r7, #0]
 800186a:	429a      	cmp	r2, r3
 800186c:	d910      	bls.n	8001890 <HAL_RCC_ClockConfig+0x44>
  {
    /* Program the new number of wait states to the LATENCY bits in the FLASH_ACR register */
    __HAL_FLASH_SET_LATENCY(FLatency);
 800186e:	4b72      	ldr	r3, [pc, #456]	; (8001a38 <HAL_RCC_ClockConfig+0x1ec>)
 8001870:	681b      	ldr	r3, [r3, #0]
 8001872:	f023 0207 	bic.w	r2, r3, #7
 8001876:	4970      	ldr	r1, [pc, #448]	; (8001a38 <HAL_RCC_ClockConfig+0x1ec>)
 8001878:	683b      	ldr	r3, [r7, #0]
 800187a:	4313      	orrs	r3, r2
 800187c:	600b      	str	r3, [r1, #0]

    /* Check that the new number of wait states is taken into account to access the Flash
    memory by reading the FLASH_ACR register */
    if(__HAL_FLASH_GET_LATENCY() != FLatency)
 800187e:	4b6e      	ldr	r3, [pc, #440]	; (8001a38 <HAL_RCC_ClockConfig+0x1ec>)
 8001880:	681b      	ldr	r3, [r3, #0]
 8001882:	f003 0307 	and.w	r3, r3, #7
 8001886:	683a      	ldr	r2, [r7, #0]
 8001888:	429a      	cmp	r2, r3
 800188a:	d001      	beq.n	8001890 <HAL_RCC_ClockConfig+0x44>
    {
      return HAL_ERROR;
 800188c:	2301      	movs	r3, #1
 800188e:	e0cf      	b.n	8001a30 <HAL_RCC_ClockConfig+0x1e4>
    }
  }

  /*----------------- HCLK Configuration prior to SYSCLK----------------------*/
  /* Apply higher HCLK prescaler request here to ensure CPU clock is not of of spec when SYSCLK is increased */
  if(((RCC_ClkInitStruct->ClockType) & RCC_CLOCKTYPE_HCLK) == RCC_CLOCKTYPE_HCLK)
 8001890:	687b      	ldr	r3, [r7, #4]
 8001892:	681b      	ldr	r3, [r3, #0]
 8001894:	f003 0302 	and.w	r3, r3, #2
 8001898:	2b00      	cmp	r3, #0
 800189a:	d010      	beq.n	80018be <HAL_RCC_ClockConfig+0x72>
  {
    assert_param(IS_RCC_HCLK(RCC_ClkInitStruct->AHBCLKDivider));

    if(RCC_ClkInitStruct->AHBCLKDivider > READ_BIT(RCC->CFGR, RCC_CFGR_HPRE))
 800189c:	687b      	ldr	r3, [r7, #4]
 800189e:	689a      	ldr	r2, [r3, #8]
 80018a0:	4b66      	ldr	r3, [pc, #408]	; (8001a3c <HAL_RCC_ClockConfig+0x1f0>)
 80018a2:	689b      	ldr	r3, [r3, #8]
 80018a4:	f003 03f0 	and.w	r3, r3, #240	; 0xf0
 80018a8:	429a      	cmp	r2, r3
 80018aa:	d908      	bls.n	80018be <HAL_RCC_ClockConfig+0x72>
    {
      MODIFY_REG(RCC->CFGR, RCC_CFGR_HPRE, RCC_ClkInitStruct->AHBCLKDivider);
 80018ac:	4b63      	ldr	r3, [pc, #396]	; (8001a3c <HAL_RCC_ClockConfig+0x1f0>)
 80018ae:	689b      	ldr	r3, [r3, #8]
 80018b0:	f023 02f0 	bic.w	r2, r3, #240	; 0xf0
 80018b4:	687b      	ldr	r3, [r7, #4]
 80018b6:	689b      	ldr	r3, [r3, #8]
 80018b8:	4960      	ldr	r1, [pc, #384]	; (8001a3c <HAL_RCC_ClockConfig+0x1f0>)
 80018ba:	4313      	orrs	r3, r2
 80018bc:	608b      	str	r3, [r1, #8]
    }
  }

  /*------------------------- SYSCLK Configuration ---------------------------*/
  if(((RCC_ClkInitStruct->ClockType) & RCC_CLOCKTYPE_SYSCLK) == RCC_CLOCKTYPE_SYSCLK)
 80018be:	687b      	ldr	r3, [r7, #4]
 80018c0:	681b      	ldr	r3, [r3, #0]
 80018c2:	f003 0301 	and.w	r3, r3, #1
 80018c6:	2b00      	cmp	r3, #0
 80018c8:	d04c      	beq.n	8001964 <HAL_RCC_ClockConfig+0x118>
  {
    assert_param(IS_RCC_SYSCLKSOURCE(RCC_ClkInitStruct->SYSCLKSource));

    /* PLL is selected as System Clock Source */
    if(RCC_ClkInitStruct->SYSCLKSource == RCC_SYSCLKSOURCE_PLLCLK)
 80018ca:	687b      	ldr	r3, [r7, #4]
 80018cc:	685b      	ldr	r3, [r3, #4]
 80018ce:	2b03      	cmp	r3, #3
 80018d0:	d107      	bne.n	80018e2 <HAL_RCC_ClockConfig+0x96>
    {
      /* Check the PLL ready flag */
      if(READ_BIT(RCC->CR, RCC_CR_PLLRDY) == 0U)
 80018d2:	4b5a      	ldr	r3, [pc, #360]	; (8001a3c <HAL_RCC_ClockConfig+0x1f0>)
 80018d4:	681b      	ldr	r3, [r3, #0]
 80018d6:	f003 7300 	and.w	r3, r3, #33554432	; 0x2000000
 80018da:	2b00      	cmp	r3, #0
 80018dc:	d121      	bne.n	8001922 <HAL_RCC_ClockConfig+0xd6>
      {
        return HAL_ERROR;
 80018de:	2301      	movs	r3, #1
 80018e0:	e0a6      	b.n	8001a30 <HAL_RCC_ClockConfig+0x1e4>
#endif
    }
    else
    {
      /* HSE is selected as System Clock Source */
      if(RCC_ClkInitStruct->SYSCLKSource == RCC_SYSCLKSOURCE_HSE)
 80018e2:	687b      	ldr	r3, [r7, #4]
 80018e4:	685b      	ldr	r3, [r3, #4]
 80018e6:	2b02      	cmp	r3, #2
 80018e8:	d107      	bne.n	80018fa <HAL_RCC_ClockConfig+0xae>
      {
        /* Check the HSE ready flag */
        if(READ_BIT(RCC->CR, RCC_CR_HSERDY) == 0U)
 80018ea:	4b54      	ldr	r3, [pc, #336]	; (8001a3c <HAL_RCC_ClockConfig+0x1f0>)
 80018ec:	681b      	ldr	r3, [r3, #0]
 80018ee:	f403 3300 	and.w	r3, r3, #131072	; 0x20000
 80018f2:	2b00      	cmp	r3, #0
 80018f4:	d115      	bne.n	8001922 <HAL_RCC_ClockConfig+0xd6>
        {
          return HAL_ERROR;
 80018f6:	2301      	movs	r3, #1
 80018f8:	e09a      	b.n	8001a30 <HAL_RCC_ClockConfig+0x1e4>
        }
      }
      /* MSI is selected as System Clock Source */
      else if(RCC_ClkInitStruct->SYSCLKSource == RCC_SYSCLKSOURCE_MSI)
 80018fa:	687b      	ldr	r3, [r7, #4]
 80018fc:	685b      	ldr	r3, [r3, #4]
 80018fe:	2b00      	cmp	r3, #0
 8001900:	d107      	bne.n	8001912 <HAL_RCC_ClockConfig+0xc6>
      {
        /* Check the MSI ready flag */
        if(READ_BIT(RCC->CR, RCC_CR_MSIRDY) == 0U)
 8001902:	4b4e      	ldr	r3, [pc, #312]	; (8001a3c <HAL_RCC_ClockConfig+0x1f0>)
 8001904:	681b      	ldr	r3, [r3, #0]
 8001906:	f003 0302 	and.w	r3, r3, #2
 800190a:	2b00      	cmp	r3, #0
 800190c:	d109      	bne.n	8001922 <HAL_RCC_ClockConfig+0xd6>
        {
          return HAL_ERROR;
 800190e:	2301      	movs	r3, #1
 8001910:	e08e      	b.n	8001a30 <HAL_RCC_ClockConfig+0x1e4>
      }
      /* HSI is selected as System Clock Source */
      else
      {
        /* Check the HSI ready flag */
        if(READ_BIT(RCC->CR, RCC_CR_HSIRDY) == 0U)
 8001912:	4b4a      	ldr	r3, [pc, #296]	; (8001a3c <HAL_RCC_ClockConfig+0x1f0>)
 8001914:	681b      	ldr	r3, [r3, #0]
 8001916:	f403 6380 	and.w	r3, r3, #1024	; 0x400
 800191a:	2b00      	cmp	r3, #0
 800191c:	d101      	bne.n	8001922 <HAL_RCC_ClockConfig+0xd6>
        {
          return HAL_ERROR;
 800191e:	2301      	movs	r3, #1
 8001920:	e086      	b.n	8001a30 <HAL_RCC_ClockConfig+0x1e4>
      }
#endif

    }

    MODIFY_REG(RCC->CFGR, RCC_CFGR_SW, RCC_ClkInitStruct->SYSCLKSource);
 8001922:	4b46      	ldr	r3, [pc, #280]	; (8001a3c <HAL_RCC_ClockConfig+0x1f0>)
 8001924:	689b      	ldr	r3, [r3, #8]
 8001926:	f023 0203 	bic.w	r2, r3, #3
 800192a:	687b      	ldr	r3, [r7, #4]
 800192c:	685b      	ldr	r3, [r3, #4]
 800192e:	4943      	ldr	r1, [pc, #268]	; (8001a3c <HAL_RCC_ClockConfig+0x1f0>)
 8001930:	4313      	orrs	r3, r2
 8001932:	608b      	str	r3, [r1, #8]

    /* Get Start Tick*/
    tickstart = HAL_GetTick();
 8001934:	f7ff f80a 	bl	800094c <HAL_GetTick>
 8001938:	60f8      	str	r0, [r7, #12]

    while(__HAL_RCC_GET_SYSCLK_SOURCE() != (RCC_ClkInitStruct->SYSCLKSource << RCC_CFGR_SWS_Pos))
 800193a:	e00a      	b.n	8001952 <HAL_RCC_ClockConfig+0x106>
    {
      if((HAL_GetTick() - tickstart) > CLOCKSWITCH_TIMEOUT_VALUE)
 800193c:	f7ff f806 	bl	800094c <HAL_GetTick>
 8001940:	4602      	mov	r2, r0
 8001942:	68fb      	ldr	r3, [r7, #12]
 8001944:	1ad3      	subs	r3, r2, r3
 8001946:	f241 3288 	movw	r2, #5000	; 0x1388
 800194a:	4293      	cmp	r3, r2
 800194c:	d901      	bls.n	8001952 <HAL_RCC_ClockConfig+0x106>
      {
        return HAL_TIMEOUT;
 800194e:	2303      	movs	r3, #3
 8001950:	e06e      	b.n	8001a30 <HAL_RCC_ClockConfig+0x1e4>
    while(__HAL_RCC_GET_SYSCLK_SOURCE() != (RCC_ClkInitStruct->SYSCLKSource << RCC_CFGR_SWS_Pos))
 8001952:	4b3a      	ldr	r3, [pc, #232]	; (8001a3c <HAL_RCC_ClockConfig+0x1f0>)
 8001954:	689b      	ldr	r3, [r3, #8]
 8001956:	f003 020c 	and.w	r2, r3, #12
 800195a:	687b      	ldr	r3, [r7, #4]
 800195c:	685b      	ldr	r3, [r3, #4]
 800195e:	009b      	lsls	r3, r3, #2
 8001960:	429a      	cmp	r2, r3
 8001962:	d1eb      	bne.n	800193c <HAL_RCC_ClockConfig+0xf0>
  }
#endif

  /*----------------- HCLK Configuration after SYSCLK-------------------------*/
  /* Apply lower HCLK prescaler request here to ensure CPU clock is not of of spec when SYSCLK is set */
  if(((RCC_ClkInitStruct->ClockType) & RCC_CLOCKTYPE_HCLK) == RCC_CLOCKTYPE_HCLK)
 8001964:	687b      	ldr	r3, [r7, #4]
 8001966:	681b      	ldr	r3, [r3, #0]
 8001968:	f003 0302 	and.w	r3, r3, #2
 800196c:	2b00      	cmp	r3, #0
 800196e:	d010      	beq.n	8001992 <HAL_RCC_ClockConfig+0x146>
  {
    if(RCC_ClkInitStruct->AHBCLKDivider < READ_BIT(RCC->CFGR, RCC_CFGR_HPRE))
 8001970:	687b      	ldr	r3, [r7, #4]
 8001972:	689a      	ldr	r2, [r3, #8]
 8001974:	4b31      	ldr	r3, [pc, #196]	; (8001a3c <HAL_RCC_ClockConfig+0x1f0>)
 8001976:	689b      	ldr	r3, [r3, #8]
 8001978:	f003 03f0 	and.w	r3, r3, #240	; 0xf0
 800197c:	429a      	cmp	r2, r3
 800197e:	d208      	bcs.n	8001992 <HAL_RCC_ClockConfig+0x146>
    {
      MODIFY_REG(RCC->CFGR, RCC_CFGR_HPRE, RCC_ClkInitStruct->AHBCLKDivider);
 8001980:	4b2e      	ldr	r3, [pc, #184]	; (8001a3c <HAL_RCC_ClockConfig+0x1f0>)
 8001982:	689b      	ldr	r3, [r3, #8]
 8001984:	f023 02f0 	bic.w	r2, r3, #240	; 0xf0
 8001988:	687b      	ldr	r3, [r7, #4]
 800198a:	689b      	ldr	r3, [r3, #8]
 800198c:	492b      	ldr	r1, [pc, #172]	; (8001a3c <HAL_RCC_ClockConfig+0x1f0>)
 800198e:	4313      	orrs	r3, r2
 8001990:	608b      	str	r3, [r1, #8]
    }
  }

  /* Allow decreasing of the number of wait states (because of lower CPU frequency expected) */
  if(FLatency < __HAL_FLASH_GET_LATENCY())
 8001992:	4b29      	ldr	r3, [pc, #164]	; (8001a38 <HAL_RCC_ClockConfig+0x1ec>)
 8001994:	681b      	ldr	r3, [r3, #0]
 8001996:	f003 0307 	and.w	r3, r3, #7
 800199a:	683a      	ldr	r2, [r7, #0]
 800199c:	429a      	cmp	r2, r3
 800199e:	d210      	bcs.n	80019c2 <HAL_RCC_ClockConfig+0x176>
  {
    /* Program the new number of wait states to the LATENCY bits in the FLASH_ACR register */
    __HAL_FLASH_SET_LATENCY(FLatency);
 80019a0:	4b25      	ldr	r3, [pc, #148]	; (8001a38 <HAL_RCC_ClockConfig+0x1ec>)
 80019a2:	681b      	ldr	r3, [r3, #0]
 80019a4:	f023 0207 	bic.w	r2, r3, #7
 80019a8:	4923      	ldr	r1, [pc, #140]	; (8001a38 <HAL_RCC_ClockConfig+0x1ec>)
 80019aa:	683b      	ldr	r3, [r7, #0]
 80019ac:	4313      	orrs	r3, r2
 80019ae:	600b      	str	r3, [r1, #0]

    /* Check that the new number of wait states is taken into account to access the Flash
    memory by reading the FLASH_ACR register */
    if(__HAL_FLASH_GET_LATENCY() != FLatency)
 80019b0:	4b21      	ldr	r3, [pc, #132]	; (8001a38 <HAL_RCC_ClockConfig+0x1ec>)
 80019b2:	681b      	ldr	r3, [r3, #0]
 80019b4:	f003 0307 	and.w	r3, r3, #7
 80019b8:	683a      	ldr	r2, [r7, #0]
 80019ba:	429a      	cmp	r2, r3
 80019bc:	d001      	beq.n	80019c2 <HAL_RCC_ClockConfig+0x176>
    {
      return HAL_ERROR;
 80019be:	2301      	movs	r3, #1
 80019c0:	e036      	b.n	8001a30 <HAL_RCC_ClockConfig+0x1e4>
    }
  }

  /*-------------------------- PCLK1 Configuration ---------------------------*/
  if(((RCC_ClkInitStruct->ClockType) & RCC_CLOCKTYPE_PCLK1) == RCC_CLOCKTYPE_PCLK1)
 80019c2:	687b      	ldr	r3, [r7, #4]
 80019c4:	681b      	ldr	r3, [r3, #0]
 80019c6:	f003 0304 	and.w	r3, r3, #4
 80019ca:	2b00      	cmp	r3, #0
 80019cc:	d008      	beq.n	80019e0 <HAL_RCC_ClockConfig+0x194>
  {
    assert_param(IS_RCC_PCLK(RCC_ClkInitStruct->APB1CLKDivider));
    MODIFY_REG(RCC->CFGR, RCC_CFGR_PPRE1, RCC_ClkInitStruct->APB1CLKDivider);
 80019ce:	4b1b      	ldr	r3, [pc, #108]	; (8001a3c <HAL_RCC_ClockConfig+0x1f0>)
 80019d0:	689b      	ldr	r3, [r3, #8]
 80019d2:	f423 62e0 	bic.w	r2, r3, #1792	; 0x700
 80019d6:	687b      	ldr	r3, [r7, #4]
 80019d8:	68db      	ldr	r3, [r3, #12]
 80019da:	4918      	ldr	r1, [pc, #96]	; (8001a3c <HAL_RCC_ClockConfig+0x1f0>)
 80019dc:	4313      	orrs	r3, r2
 80019de:	608b      	str	r3, [r1, #8]
  }

  /*-------------------------- PCLK2 Configuration ---------------------------*/
  if(((RCC_ClkInitStruct->ClockType) & RCC_CLOCKTYPE_PCLK2) == RCC_CLOCKTYPE_PCLK2)
 80019e0:	687b      	ldr	r3, [r7, #4]
 80019e2:	681b      	ldr	r3, [r3, #0]
 80019e4:	f003 0308 	and.w	r3, r3, #8
 80019e8:	2b00      	cmp	r3, #0
 80019ea:	d009      	beq.n	8001a00 <HAL_RCC_ClockConfig+0x1b4>
  {
    assert_param(IS_RCC_PCLK(RCC_ClkInitStruct->APB2CLKDivider));
    MODIFY_REG(RCC->CFGR, RCC_CFGR_PPRE2, ((RCC_ClkInitStruct->APB2CLKDivider) << 3U));
 80019ec:	4b13      	ldr	r3, [pc, #76]	; (8001a3c <HAL_RCC_ClockConfig+0x1f0>)
 80019ee:	689b      	ldr	r3, [r3, #8]
 80019f0:	f423 5260 	bic.w	r2, r3, #14336	; 0x3800
 80019f4:	687b      	ldr	r3, [r7, #4]
 80019f6:	691b      	ldr	r3, [r3, #16]
 80019f8:	00db      	lsls	r3, r3, #3
 80019fa:	4910      	ldr	r1, [pc, #64]	; (8001a3c <HAL_RCC_ClockConfig+0x1f0>)
 80019fc:	4313      	orrs	r3, r2
 80019fe:	608b      	str	r3, [r1, #8]
  }

  /* Update the SystemCoreClock global variable */
  SystemCoreClock = HAL_RCC_GetSysClockFreq() >> (AHBPrescTable[READ_BIT(RCC->CFGR, RCC_CFGR_HPRE) >> RCC_CFGR_HPRE_Pos] & 0x1FU);
 8001a00:	f000 f824 	bl	8001a4c <HAL_RCC_GetSysClockFreq>
 8001a04:	4602      	mov	r2, r0
 8001a06:	4b0d      	ldr	r3, [pc, #52]	; (8001a3c <HAL_RCC_ClockConfig+0x1f0>)
 8001a08:	689b      	ldr	r3, [r3, #8]
 8001a0a:	091b      	lsrs	r3, r3, #4
 8001a0c:	f003 030f 	and.w	r3, r3, #15
 8001a10:	490b      	ldr	r1, [pc, #44]	; (8001a40 <HAL_RCC_ClockConfig+0x1f4>)
 8001a12:	5ccb      	ldrb	r3, [r1, r3]
 8001a14:	f003 031f 	and.w	r3, r3, #31
 8001a18:	fa22 f303 	lsr.w	r3, r2, r3
 8001a1c:	4a09      	ldr	r2, [pc, #36]	; (8001a44 <HAL_RCC_ClockConfig+0x1f8>)
 8001a1e:	6013      	str	r3, [r2, #0]

  /* Configure the source of time base considering new system clocks settings*/
  status = HAL_InitTick(uwTickPrio);
 8001a20:	4b09      	ldr	r3, [pc, #36]	; (8001a48 <HAL_RCC_ClockConfig+0x1fc>)
 8001a22:	681b      	ldr	r3, [r3, #0]
 8001a24:	4618      	mov	r0, r3
 8001a26:	f7fe ff41 	bl	80008ac <HAL_InitTick>
 8001a2a:	4603      	mov	r3, r0
 8001a2c:	72fb      	strb	r3, [r7, #11]

  return status;
 8001a2e:	7afb      	ldrb	r3, [r7, #11]
}
 8001a30:	4618      	mov	r0, r3
 8001a32:	3710      	adds	r7, #16
 8001a34:	46bd      	mov	sp, r7
 8001a36:	bd80      	pop	{r7, pc}
 8001a38:	40022000 	.word	0x40022000
 8001a3c:	40021000 	.word	0x40021000
 8001a40:	080028c0 	.word	0x080028c0
 8001a44:	20000000 	.word	0x20000000
 8001a48:	20000004 	.word	0x20000004

08001a4c <HAL_RCC_GetSysClockFreq>:
  *
  *
  * @retval SYSCLK frequency
  */
uint32_t HAL_RCC_GetSysClockFreq(void)
{
 8001a4c:	b480      	push	{r7}
 8001a4e:	b089      	sub	sp, #36	; 0x24
 8001a50:	af00      	add	r7, sp, #0
  uint32_t msirange = 0U, sysclockfreq = 0U;
 8001a52:	2300      	movs	r3, #0
 8001a54:	61fb      	str	r3, [r7, #28]
 8001a56:	2300      	movs	r3, #0
 8001a58:	61bb      	str	r3, [r7, #24]
  uint32_t pllvco, pllsource, pllr, pllm;    /* no init needed */
  uint32_t sysclk_source, pll_oscsource;

  sysclk_source = __HAL_RCC_GET_SYSCLK_SOURCE();
 8001a5a:	4b3e      	ldr	r3, [pc, #248]	; (8001b54 <HAL_RCC_GetSysClockFreq+0x108>)
 8001a5c:	689b      	ldr	r3, [r3, #8]
 8001a5e:	f003 030c 	and.w	r3, r3, #12
 8001a62:	613b      	str	r3, [r7, #16]
  pll_oscsource = __HAL_RCC_GET_PLL_OSCSOURCE();
 8001a64:	4b3b      	ldr	r3, [pc, #236]	; (8001b54 <HAL_RCC_GetSysClockFreq+0x108>)
 8001a66:	68db      	ldr	r3, [r3, #12]
 8001a68:	f003 0303 	and.w	r3, r3, #3
 8001a6c:	60fb      	str	r3, [r7, #12]

  if((sysclk_source == RCC_CFGR_SWS_MSI) ||
 8001a6e:	693b      	ldr	r3, [r7, #16]
 8001a70:	2b00      	cmp	r3, #0
 8001a72:	d005      	beq.n	8001a80 <HAL_RCC_GetSysClockFreq+0x34>
 8001a74:	693b      	ldr	r3, [r7, #16]
 8001a76:	2b0c      	cmp	r3, #12
 8001a78:	d121      	bne.n	8001abe <HAL_RCC_GetSysClockFreq+0x72>
     ((sysclk_source == RCC_CFGR_SWS_PLL) && (pll_oscsource == RCC_PLLSOURCE_MSI)))
 8001a7a:	68fb      	ldr	r3, [r7, #12]
 8001a7c:	2b01      	cmp	r3, #1
 8001a7e:	d11e      	bne.n	8001abe <HAL_RCC_GetSysClockFreq+0x72>
  {
    /* MSI or PLL with MSI source used as system clock source */

    /* Get SYSCLK source */
    if(READ_BIT(RCC->CR, RCC_CR_MSIRGSEL) == 0U)
 8001a80:	4b34      	ldr	r3, [pc, #208]	; (8001b54 <HAL_RCC_GetSysClockFreq+0x108>)
 8001a82:	681b      	ldr	r3, [r3, #0]
 8001a84:	f003 0308 	and.w	r3, r3, #8
 8001a88:	2b00      	cmp	r3, #0
 8001a8a:	d107      	bne.n	8001a9c <HAL_RCC_GetSysClockFreq+0x50>
    { /* MSISRANGE from RCC_CSR applies */
      msirange = READ_BIT(RCC->CSR, RCC_CSR_MSISRANGE) >> RCC_CSR_MSISRANGE_Pos;
 8001a8c:	4b31      	ldr	r3, [pc, #196]	; (8001b54 <HAL_RCC_GetSysClockFreq+0x108>)
 8001a8e:	f8d3 3094 	ldr.w	r3, [r3, #148]	; 0x94
 8001a92:	0a1b      	lsrs	r3, r3, #8
 8001a94:	f003 030f 	and.w	r3, r3, #15
 8001a98:	61fb      	str	r3, [r7, #28]
 8001a9a:	e005      	b.n	8001aa8 <HAL_RCC_GetSysClockFreq+0x5c>
    }
    else
    { /* MSIRANGE from RCC_CR applies */
      msirange = READ_BIT(RCC->CR, RCC_CR_MSIRANGE) >> RCC_CR_MSIRANGE_Pos;
 8001a9c:	4b2d      	ldr	r3, [pc, #180]	; (8001b54 <HAL_RCC_GetSysClockFreq+0x108>)
 8001a9e:	681b      	ldr	r3, [r3, #0]
 8001aa0:	091b      	lsrs	r3, r3, #4
 8001aa2:	f003 030f 	and.w	r3, r3, #15
 8001aa6:	61fb      	str	r3, [r7, #28]
    }
    /*MSI frequency range in HZ*/
    msirange = MSIRangeTable[msirange];
 8001aa8:	4a2b      	ldr	r2, [pc, #172]	; (8001b58 <HAL_RCC_GetSysClockFreq+0x10c>)
 8001aaa:	69fb      	ldr	r3, [r7, #28]
 8001aac:	f852 3023 	ldr.w	r3, [r2, r3, lsl #2]
 8001ab0:	61fb      	str	r3, [r7, #28]

    if(sysclk_source == RCC_CFGR_SWS_MSI)
 8001ab2:	693b      	ldr	r3, [r7, #16]
 8001ab4:	2b00      	cmp	r3, #0
 8001ab6:	d10d      	bne.n	8001ad4 <HAL_RCC_GetSysClockFreq+0x88>
    {
      /* MSI used as system clock source */
      sysclockfreq = msirange;
 8001ab8:	69fb      	ldr	r3, [r7, #28]
 8001aba:	61bb      	str	r3, [r7, #24]
    if(sysclk_source == RCC_CFGR_SWS_MSI)
 8001abc:	e00a      	b.n	8001ad4 <HAL_RCC_GetSysClockFreq+0x88>
    }
  }
  else if(sysclk_source == RCC_CFGR_SWS_HSI)
 8001abe:	693b      	ldr	r3, [r7, #16]
 8001ac0:	2b04      	cmp	r3, #4
 8001ac2:	d102      	bne.n	8001aca <HAL_RCC_GetSysClockFreq+0x7e>
  {
    /* HSI used as system clock source */
    sysclockfreq = HSI_VALUE;
 8001ac4:	4b25      	ldr	r3, [pc, #148]	; (8001b5c <HAL_RCC_GetSysClockFreq+0x110>)
 8001ac6:	61bb      	str	r3, [r7, #24]
 8001ac8:	e004      	b.n	8001ad4 <HAL_RCC_GetSysClockFreq+0x88>
  }
  else if(sysclk_source == RCC_CFGR_SWS_HSE)
 8001aca:	693b      	ldr	r3, [r7, #16]
 8001acc:	2b08      	cmp	r3, #8
 8001ace:	d101      	bne.n	8001ad4 <HAL_RCC_GetSysClockFreq+0x88>
  {
    /* HSE used as system clock source */
    sysclockfreq = HSE_VALUE;
 8001ad0:	4b23      	ldr	r3, [pc, #140]	; (8001b60 <HAL_RCC_GetSysClockFreq+0x114>)
 8001ad2:	61bb      	str	r3, [r7, #24]
  else
  {
    /* unexpected case: sysclockfreq at 0 */
  }

  if(sysclk_source == RCC_CFGR_SWS_PLL)
 8001ad4:	693b      	ldr	r3, [r7, #16]
 8001ad6:	2b0c      	cmp	r3, #12
 8001ad8:	d134      	bne.n	8001b44 <HAL_RCC_GetSysClockFreq+0xf8>
    /* PLL used as system clock  source */

    /* PLL_VCO = (HSE_VALUE or HSI_VALUE or MSI_VALUE) * PLLN / PLLM
    SYSCLK = PLL_VCO / PLLR
    */
    pllsource = READ_BIT(RCC->PLLCFGR, RCC_PLLCFGR_PLLSRC);
 8001ada:	4b1e      	ldr	r3, [pc, #120]	; (8001b54 <HAL_RCC_GetSysClockFreq+0x108>)
 8001adc:	68db      	ldr	r3, [r3, #12]
 8001ade:	f003 0303 	and.w	r3, r3, #3
 8001ae2:	60bb      	str	r3, [r7, #8]

    switch (pllsource)
 8001ae4:	68bb      	ldr	r3, [r7, #8]
 8001ae6:	2b02      	cmp	r3, #2
 8001ae8:	d003      	beq.n	8001af2 <HAL_RCC_GetSysClockFreq+0xa6>
 8001aea:	68bb      	ldr	r3, [r7, #8]
 8001aec:	2b03      	cmp	r3, #3
 8001aee:	d003      	beq.n	8001af8 <HAL_RCC_GetSysClockFreq+0xac>
 8001af0:	e005      	b.n	8001afe <HAL_RCC_GetSysClockFreq+0xb2>
    {
    case RCC_PLLSOURCE_HSI:  /* HSI used as PLL clock source */
      pllvco = HSI_VALUE;
 8001af2:	4b1a      	ldr	r3, [pc, #104]	; (8001b5c <HAL_RCC_GetSysClockFreq+0x110>)
 8001af4:	617b      	str	r3, [r7, #20]
      break;
 8001af6:	e005      	b.n	8001b04 <HAL_RCC_GetSysClockFreq+0xb8>

    case RCC_PLLSOURCE_HSE:  /* HSE used as PLL clock source */
      pllvco = HSE_VALUE;
 8001af8:	4b19      	ldr	r3, [pc, #100]	; (8001b60 <HAL_RCC_GetSysClockFreq+0x114>)
 8001afa:	617b      	str	r3, [r7, #20]
      break;
 8001afc:	e002      	b.n	8001b04 <HAL_RCC_GetSysClockFreq+0xb8>

    case RCC_PLLSOURCE_MSI:  /* MSI used as PLL clock source */
    default:
      pllvco = msirange;
 8001afe:	69fb      	ldr	r3, [r7, #28]
 8001b00:	617b      	str	r3, [r7, #20]
      break;
 8001b02:	bf00      	nop
    }
    pllm = (READ_BIT(RCC->PLLCFGR, RCC_PLLCFGR_PLLM) >> RCC_PLLCFGR_PLLM_Pos) + 1U ;
 8001b04:	4b13      	ldr	r3, [pc, #76]	; (8001b54 <HAL_RCC_GetSysClockFreq+0x108>)
 8001b06:	68db      	ldr	r3, [r3, #12]
 8001b08:	091b      	lsrs	r3, r3, #4
 8001b0a:	f003 0307 	and.w	r3, r3, #7
 8001b0e:	3301      	adds	r3, #1
 8001b10:	607b      	str	r3, [r7, #4]
    pllvco = (pllvco * (READ_BIT(RCC->PLLCFGR, RCC_PLLCFGR_PLLN) >> RCC_PLLCFGR_PLLN_Pos)) / pllm;
 8001b12:	4b10      	ldr	r3, [pc, #64]	; (8001b54 <HAL_RCC_GetSysClockFreq+0x108>)
 8001b14:	68db      	ldr	r3, [r3, #12]
 8001b16:	0a1b      	lsrs	r3, r3, #8
 8001b18:	f003 037f 	and.w	r3, r3, #127	; 0x7f
 8001b1c:	697a      	ldr	r2, [r7, #20]
 8001b1e:	fb03 f202 	mul.w	r2, r3, r2
 8001b22:	687b      	ldr	r3, [r7, #4]
 8001b24:	fbb2 f3f3 	udiv	r3, r2, r3
 8001b28:	617b      	str	r3, [r7, #20]
    pllr = ((READ_BIT(RCC->PLLCFGR, RCC_PLLCFGR_PLLR) >> RCC_PLLCFGR_PLLR_Pos) + 1U ) * 2U;
 8001b2a:	4b0a      	ldr	r3, [pc, #40]	; (8001b54 <HAL_RCC_GetSysClockFreq+0x108>)
 8001b2c:	68db      	ldr	r3, [r3, #12]
 8001b2e:	0e5b      	lsrs	r3, r3, #25
 8001b30:	f003 0303 	and.w	r3, r3, #3
 8001b34:	3301      	adds	r3, #1
 8001b36:	005b      	lsls	r3, r3, #1
 8001b38:	603b      	str	r3, [r7, #0]
    sysclockfreq = pllvco / pllr;
 8001b3a:	697a      	ldr	r2, [r7, #20]
 8001b3c:	683b      	ldr	r3, [r7, #0]
 8001b3e:	fbb2 f3f3 	udiv	r3, r2, r3
 8001b42:	61bb      	str	r3, [r7, #24]
  }

  return sysclockfreq;
 8001b44:	69bb      	ldr	r3, [r7, #24]
}
 8001b46:	4618      	mov	r0, r3
 8001b48:	3724      	adds	r7, #36	; 0x24
 8001b4a:	46bd      	mov	sp, r7
 8001b4c:	f85d 7b04 	ldr.w	r7, [sp], #4
 8001b50:	4770      	bx	lr
 8001b52:	bf00      	nop
 8001b54:	40021000 	.word	0x40021000
 8001b58:	080028d8 	.word	0x080028d8
 8001b5c:	00f42400 	.word	0x00f42400
 8001b60:	007a1200 	.word	0x007a1200

08001b64 <HAL_RCC_GetHCLKFreq>:
  *
  * @note   The SystemCoreClock CMSIS variable is used to store System Clock Frequency.
  * @retval HCLK frequency in Hz
  */
uint32_t HAL_RCC_GetHCLKFreq(void)
{
 8001b64:	b480      	push	{r7}
 8001b66:	af00      	add	r7, sp, #0
  return SystemCoreClock;
 8001b68:	4b03      	ldr	r3, [pc, #12]	; (8001b78 <HAL_RCC_GetHCLKFreq+0x14>)
 8001b6a:	681b      	ldr	r3, [r3, #0]
}
 8001b6c:	4618      	mov	r0, r3
 8001b6e:	46bd      	mov	sp, r7
 8001b70:	f85d 7b04 	ldr.w	r7, [sp], #4
 8001b74:	4770      	bx	lr
 8001b76:	bf00      	nop
 8001b78:	20000000 	.word	0x20000000

08001b7c <HAL_RCC_GetPCLK1Freq>:
  * @note   Each time PCLK1 changes, this function must be called to update the
  *         right PCLK1 value. Otherwise, any configuration based on this function will be incorrect.
  * @retval PCLK1 frequency in Hz
  */
uint32_t HAL_RCC_GetPCLK1Freq(void)
{
 8001b7c:	b580      	push	{r7, lr}
 8001b7e:	af00      	add	r7, sp, #0
  /* Get HCLK source and Compute PCLK1 frequency ---------------------------*/
  return (HAL_RCC_GetHCLKFreq() >> (APBPrescTable[READ_BIT(RCC->CFGR, RCC_CFGR_PPRE1) >> RCC_CFGR_PPRE1_Pos] & 0x1FU));
 8001b80:	f7ff fff0 	bl	8001b64 <HAL_RCC_GetHCLKFreq>
 8001b84:	4602      	mov	r2, r0
 8001b86:	4b06      	ldr	r3, [pc, #24]	; (8001ba0 <HAL_RCC_GetPCLK1Freq+0x24>)
 8001b88:	689b      	ldr	r3, [r3, #8]
 8001b8a:	0a1b      	lsrs	r3, r3, #8
 8001b8c:	f003 0307 	and.w	r3, r3, #7
 8001b90:	4904      	ldr	r1, [pc, #16]	; (8001ba4 <HAL_RCC_GetPCLK1Freq+0x28>)
 8001b92:	5ccb      	ldrb	r3, [r1, r3]
 8001b94:	f003 031f 	and.w	r3, r3, #31
 8001b98:	fa22 f303 	lsr.w	r3, r2, r3
}
 8001b9c:	4618      	mov	r0, r3
 8001b9e:	bd80      	pop	{r7, pc}
 8001ba0:	40021000 	.word	0x40021000
 8001ba4:	080028d0 	.word	0x080028d0

08001ba8 <HAL_RCC_GetPCLK2Freq>:
  * @note   Each time PCLK2 changes, this function must be called to update the
  *         right PCLK2 value. Otherwise, any configuration based on this function will be incorrect.
  * @retval PCLK2 frequency in Hz
  */
uint32_t HAL_RCC_GetPCLK2Freq(void)
{
 8001ba8:	b580      	push	{r7, lr}
 8001baa:	af00      	add	r7, sp, #0
  /* Get HCLK source and Compute PCLK2 frequency ---------------------------*/
  return (HAL_RCC_GetHCLKFreq()>> (APBPrescTable[READ_BIT(RCC->CFGR, RCC_CFGR_PPRE2) >> RCC_CFGR_PPRE2_Pos] & 0x1FU));
 8001bac:	f7ff ffda 	bl	8001b64 <HAL_RCC_GetHCLKFreq>
 8001bb0:	4602      	mov	r2, r0
 8001bb2:	4b06      	ldr	r3, [pc, #24]	; (8001bcc <HAL_RCC_GetPCLK2Freq+0x24>)
 8001bb4:	689b      	ldr	r3, [r3, #8]
 8001bb6:	0adb      	lsrs	r3, r3, #11
 8001bb8:	f003 0307 	and.w	r3, r3, #7
 8001bbc:	4904      	ldr	r1, [pc, #16]	; (8001bd0 <HAL_RCC_GetPCLK2Freq+0x28>)
 8001bbe:	5ccb      	ldrb	r3, [r1, r3]
 8001bc0:	f003 031f 	and.w	r3, r3, #31
 8001bc4:	fa22 f303 	lsr.w	r3, r2, r3
}
 8001bc8:	4618      	mov	r0, r3
 8001bca:	bd80      	pop	{r7, pc}
 8001bcc:	40021000 	.word	0x40021000
 8001bd0:	080028d0 	.word	0x080028d0

08001bd4 <RCC_SetFlashLatencyFromMSIRange>:
            voltage range.
  * @param  msirange  MSI range value from RCC_MSIRANGE_0 to RCC_MSIRANGE_11
  * @retval HAL status
  */
static HAL_StatusTypeDef RCC_SetFlashLatencyFromMSIRange(uint32_t msirange)
{
 8001bd4:	b580      	push	{r7, lr}
 8001bd6:	b086      	sub	sp, #24
 8001bd8:	af00      	add	r7, sp, #0
 8001bda:	6078      	str	r0, [r7, #4]
  uint32_t vos;
  uint32_t latency = FLASH_LATENCY_0;  /* default value 0WS */
 8001bdc:	2300      	movs	r3, #0
 8001bde:	613b      	str	r3, [r7, #16]

  if(__HAL_RCC_PWR_IS_CLK_ENABLED())
 8001be0:	4b2a      	ldr	r3, [pc, #168]	; (8001c8c <RCC_SetFlashLatencyFromMSIRange+0xb8>)
 8001be2:	6d9b      	ldr	r3, [r3, #88]	; 0x58
 8001be4:	f003 5380 	and.w	r3, r3, #268435456	; 0x10000000
 8001be8:	2b00      	cmp	r3, #0
 8001bea:	d003      	beq.n	8001bf4 <RCC_SetFlashLatencyFromMSIRange+0x20>
  {
    vos = HAL_PWREx_GetVoltageRange();
 8001bec:	f7ff f968 	bl	8000ec0 <HAL_PWREx_GetVoltageRange>
 8001bf0:	6178      	str	r0, [r7, #20]
 8001bf2:	e014      	b.n	8001c1e <RCC_SetFlashLatencyFromMSIRange+0x4a>
  }
  else
  {
    __HAL_RCC_PWR_CLK_ENABLE();
 8001bf4:	4b25      	ldr	r3, [pc, #148]	; (8001c8c <RCC_SetFlashLatencyFromMSIRange+0xb8>)
 8001bf6:	6d9b      	ldr	r3, [r3, #88]	; 0x58
 8001bf8:	4a24      	ldr	r2, [pc, #144]	; (8001c8c <RCC_SetFlashLatencyFromMSIRange+0xb8>)
 8001bfa:	f043 5380 	orr.w	r3, r3, #268435456	; 0x10000000
 8001bfe:	6593      	str	r3, [r2, #88]	; 0x58
 8001c00:	4b22      	ldr	r3, [pc, #136]	; (8001c8c <RCC_SetFlashLatencyFromMSIRange+0xb8>)
 8001c02:	6d9b      	ldr	r3, [r3, #88]	; 0x58
 8001c04:	f003 5380 	and.w	r3, r3, #268435456	; 0x10000000
 8001c08:	60fb      	str	r3, [r7, #12]
 8001c0a:	68fb      	ldr	r3, [r7, #12]
    vos = HAL_PWREx_GetVoltageRange();
 8001c0c:	f7ff f958 	bl	8000ec0 <HAL_PWREx_GetVoltageRange>
 8001c10:	6178      	str	r0, [r7, #20]
    __HAL_RCC_PWR_CLK_DISABLE();
 8001c12:	4b1e      	ldr	r3, [pc, #120]	; (8001c8c <RCC_SetFlashLatencyFromMSIRange+0xb8>)
 8001c14:	6d9b      	ldr	r3, [r3, #88]	; 0x58
 8001c16:	4a1d      	ldr	r2, [pc, #116]	; (8001c8c <RCC_SetFlashLatencyFromMSIRange+0xb8>)
 8001c18:	f023 5380 	bic.w	r3, r3, #268435456	; 0x10000000
 8001c1c:	6593      	str	r3, [r2, #88]	; 0x58
  }

  if(vos == PWR_REGULATOR_VOLTAGE_SCALE1)
 8001c1e:	697b      	ldr	r3, [r7, #20]
 8001c20:	f5b3 7f00 	cmp.w	r3, #512	; 0x200
 8001c24:	d10b      	bne.n	8001c3e <RCC_SetFlashLatencyFromMSIRange+0x6a>
  {
    if(msirange > RCC_MSIRANGE_8)
 8001c26:	687b      	ldr	r3, [r7, #4]
 8001c28:	2b80      	cmp	r3, #128	; 0x80
 8001c2a:	d919      	bls.n	8001c60 <RCC_SetFlashLatencyFromMSIRange+0x8c>
    {
      /* MSI > 16Mhz */
      if(msirange > RCC_MSIRANGE_10)
 8001c2c:	687b      	ldr	r3, [r7, #4]
 8001c2e:	2ba0      	cmp	r3, #160	; 0xa0
 8001c30:	d902      	bls.n	8001c38 <RCC_SetFlashLatencyFromMSIRange+0x64>
      {
        /* MSI 48Mhz */
        latency = FLASH_LATENCY_2; /* 2WS */
 8001c32:	2302      	movs	r3, #2
 8001c34:	613b      	str	r3, [r7, #16]
 8001c36:	e013      	b.n	8001c60 <RCC_SetFlashLatencyFromMSIRange+0x8c>
      }
      else
      {
        /* MSI 24Mhz or 32Mhz */
        latency = FLASH_LATENCY_1; /* 1WS */
 8001c38:	2301      	movs	r3, #1
 8001c3a:	613b      	str	r3, [r7, #16]
 8001c3c:	e010      	b.n	8001c60 <RCC_SetFlashLatencyFromMSIRange+0x8c>
        latency = FLASH_LATENCY_1; /* 1WS */
      }
      /* else MSI < 8Mhz default FLASH_LATENCY_0 0WS */
    }
#else
    if(msirange > RCC_MSIRANGE_8)
 8001c3e:	687b      	ldr	r3, [r7, #4]
 8001c40:	2b80      	cmp	r3, #128	; 0x80
 8001c42:	d902      	bls.n	8001c4a <RCC_SetFlashLatencyFromMSIRange+0x76>
    {
      /* MSI > 16Mhz */
      latency = FLASH_LATENCY_3; /* 3WS */
 8001c44:	2303      	movs	r3, #3
 8001c46:	613b      	str	r3, [r7, #16]
 8001c48:	e00a      	b.n	8001c60 <RCC_SetFlashLatencyFromMSIRange+0x8c>
    }
    else
    {
      if(msirange == RCC_MSIRANGE_8)
 8001c4a:	687b      	ldr	r3, [r7, #4]
 8001c4c:	2b80      	cmp	r3, #128	; 0x80
 8001c4e:	d102      	bne.n	8001c56 <RCC_SetFlashLatencyFromMSIRange+0x82>
      {
        /* MSI 16Mhz */
        latency = FLASH_LATENCY_2; /* 2WS */
 8001c50:	2302      	movs	r3, #2
 8001c52:	613b      	str	r3, [r7, #16]
 8001c54:	e004      	b.n	8001c60 <RCC_SetFlashLatencyFromMSIRange+0x8c>
      }
      else if(msirange == RCC_MSIRANGE_7)
 8001c56:	687b      	ldr	r3, [r7, #4]
 8001c58:	2b70      	cmp	r3, #112	; 0x70
 8001c5a:	d101      	bne.n	8001c60 <RCC_SetFlashLatencyFromMSIRange+0x8c>
      {
        /* MSI 8Mhz */
        latency = FLASH_LATENCY_1; /* 1WS */
 8001c5c:	2301      	movs	r3, #1
 8001c5e:	613b      	str	r3, [r7, #16]
      /* else MSI < 8Mhz default FLASH_LATENCY_0 0WS */
    }
#endif
  }

  __HAL_FLASH_SET_LATENCY(latency);
 8001c60:	4b0b      	ldr	r3, [pc, #44]	; (8001c90 <RCC_SetFlashLatencyFromMSIRange+0xbc>)
 8001c62:	681b      	ldr	r3, [r3, #0]
 8001c64:	f023 0207 	bic.w	r2, r3, #7
 8001c68:	4909      	ldr	r1, [pc, #36]	; (8001c90 <RCC_SetFlashLatencyFromMSIRange+0xbc>)
 8001c6a:	693b      	ldr	r3, [r7, #16]
 8001c6c:	4313      	orrs	r3, r2
 8001c6e:	600b      	str	r3, [r1, #0]

  /* Check that the new number of wait states is taken into account to access the Flash
     memory by reading the FLASH_ACR register */
  if(__HAL_FLASH_GET_LATENCY() != latency)
 8001c70:	4b07      	ldr	r3, [pc, #28]	; (8001c90 <RCC_SetFlashLatencyFromMSIRange+0xbc>)
 8001c72:	681b      	ldr	r3, [r3, #0]
 8001c74:	f003 0307 	and.w	r3, r3, #7
 8001c78:	693a      	ldr	r2, [r7, #16]
 8001c7a:	429a      	cmp	r2, r3
 8001c7c:	d001      	beq.n	8001c82 <RCC_SetFlashLatencyFromMSIRange+0xae>
  {
    return HAL_ERROR;
 8001c7e:	2301      	movs	r3, #1
 8001c80:	e000      	b.n	8001c84 <RCC_SetFlashLatencyFromMSIRange+0xb0>
  }

  return HAL_OK;
 8001c82:	2300      	movs	r3, #0
}
 8001c84:	4618      	mov	r0, r3
 8001c86:	3718      	adds	r7, #24
 8001c88:	46bd      	mov	sp, r7
 8001c8a:	bd80      	pop	{r7, pc}
 8001c8c:	40021000 	.word	0x40021000
 8001c90:	40022000 	.word	0x40022000

08001c94 <HAL_RCCEx_PeriphCLKConfig>:
  *         the RTC clock source: in this case the access to Backup domain is enabled.
  *
  * @retval HAL status
  */
HAL_StatusTypeDef HAL_RCCEx_PeriphCLKConfig(RCC_PeriphCLKInitTypeDef  *PeriphClkInit)
{
 8001c94:	b580      	push	{r7, lr}
 8001c96:	b086      	sub	sp, #24
 8001c98:	af00      	add	r7, sp, #0
 8001c9a:	6078      	str	r0, [r7, #4]
  uint32_t tmpregister, tickstart;     /* no init needed */
  HAL_StatusTypeDef ret = HAL_OK;      /* Intermediate status */
 8001c9c:	2300      	movs	r3, #0
 8001c9e:	74fb      	strb	r3, [r7, #19]
  HAL_StatusTypeDef status = HAL_OK;   /* Final status */
 8001ca0:	2300      	movs	r3, #0
 8001ca2:	74bb      	strb	r3, [r7, #18]
    }
  }
#endif /* SAI2 */

  /*-------------------------- RTC clock source configuration ----------------------*/
  if((PeriphClkInit->PeriphClockSelection & RCC_PERIPHCLK_RTC) == RCC_PERIPHCLK_RTC)
 8001ca4:	687b      	ldr	r3, [r7, #4]
 8001ca6:	681b      	ldr	r3, [r3, #0]
 8001ca8:	f403 3300 	and.w	r3, r3, #131072	; 0x20000
 8001cac:	2b00      	cmp	r3, #0
 8001cae:	f000 809e 	beq.w	8001dee <HAL_RCCEx_PeriphCLKConfig+0x15a>
  {
    FlagStatus       pwrclkchanged = RESET;
 8001cb2:	2300      	movs	r3, #0
 8001cb4:	747b      	strb	r3, [r7, #17]

    /* Check for RTC Parameters used to output RTCCLK */
    assert_param(IS_RCC_RTCCLKSOURCE(PeriphClkInit->RTCClockSelection));

    /* Enable Power Clock */
    if(__HAL_RCC_PWR_IS_CLK_DISABLED() != 0U)
 8001cb6:	4b46      	ldr	r3, [pc, #280]	; (8001dd0 <HAL_RCCEx_PeriphCLKConfig+0x13c>)
 8001cb8:	6d9b      	ldr	r3, [r3, #88]	; 0x58
 8001cba:	f003 5380 	and.w	r3, r3, #268435456	; 0x10000000
 8001cbe:	2b00      	cmp	r3, #0
 8001cc0:	d101      	bne.n	8001cc6 <HAL_RCCEx_PeriphCLKConfig+0x32>
 8001cc2:	2301      	movs	r3, #1
 8001cc4:	e000      	b.n	8001cc8 <HAL_RCCEx_PeriphCLKConfig+0x34>
 8001cc6:	2300      	movs	r3, #0
 8001cc8:	2b00      	cmp	r3, #0
 8001cca:	d00d      	beq.n	8001ce8 <HAL_RCCEx_PeriphCLKConfig+0x54>
    {
      __HAL_RCC_PWR_CLK_ENABLE();
 8001ccc:	4b40      	ldr	r3, [pc, #256]	; (8001dd0 <HAL_RCCEx_PeriphCLKConfig+0x13c>)
 8001cce:	6d9b      	ldr	r3, [r3, #88]	; 0x58
 8001cd0:	4a3f      	ldr	r2, [pc, #252]	; (8001dd0 <HAL_RCCEx_PeriphCLKConfig+0x13c>)
 8001cd2:	f043 5380 	orr.w	r3, r3, #268435456	; 0x10000000
 8001cd6:	6593      	str	r3, [r2, #88]	; 0x58
 8001cd8:	4b3d      	ldr	r3, [pc, #244]	; (8001dd0 <HAL_RCCEx_PeriphCLKConfig+0x13c>)
 8001cda:	6d9b      	ldr	r3, [r3, #88]	; 0x58
 8001cdc:	f003 5380 	and.w	r3, r3, #268435456	; 0x10000000
 8001ce0:	60bb      	str	r3, [r7, #8]
 8001ce2:	68bb      	ldr	r3, [r7, #8]
      pwrclkchanged = SET;
 8001ce4:	2301      	movs	r3, #1
 8001ce6:	747b      	strb	r3, [r7, #17]
    }

    /* Enable write access to Backup domain */
    SET_BIT(PWR->CR1, PWR_CR1_DBP);
 8001ce8:	4b3a      	ldr	r3, [pc, #232]	; (8001dd4 <HAL_RCCEx_PeriphCLKConfig+0x140>)
 8001cea:	681b      	ldr	r3, [r3, #0]
 8001cec:	4a39      	ldr	r2, [pc, #228]	; (8001dd4 <HAL_RCCEx_PeriphCLKConfig+0x140>)
 8001cee:	f443 7380 	orr.w	r3, r3, #256	; 0x100
 8001cf2:	6013      	str	r3, [r2, #0]

    /* Wait for Backup domain Write protection disable */
    tickstart = HAL_GetTick();
 8001cf4:	f7fe fe2a 	bl	800094c <HAL_GetTick>
 8001cf8:	60f8      	str	r0, [r7, #12]

    while(READ_BIT(PWR->CR1, PWR_CR1_DBP) == 0U)
 8001cfa:	e009      	b.n	8001d10 <HAL_RCCEx_PeriphCLKConfig+0x7c>
    {
      if((HAL_GetTick() - tickstart) > RCC_DBP_TIMEOUT_VALUE)
 8001cfc:	f7fe fe26 	bl	800094c <HAL_GetTick>
 8001d00:	4602      	mov	r2, r0
 8001d02:	68fb      	ldr	r3, [r7, #12]
 8001d04:	1ad3      	subs	r3, r2, r3
 8001d06:	2b02      	cmp	r3, #2
 8001d08:	d902      	bls.n	8001d10 <HAL_RCCEx_PeriphCLKConfig+0x7c>
      {
        ret = HAL_TIMEOUT;
 8001d0a:	2303      	movs	r3, #3
 8001d0c:	74fb      	strb	r3, [r7, #19]
        break;
 8001d0e:	e005      	b.n	8001d1c <HAL_RCCEx_PeriphCLKConfig+0x88>
    while(READ_BIT(PWR->CR1, PWR_CR1_DBP) == 0U)
 8001d10:	4b30      	ldr	r3, [pc, #192]	; (8001dd4 <HAL_RCCEx_PeriphCLKConfig+0x140>)
 8001d12:	681b      	ldr	r3, [r3, #0]
 8001d14:	f403 7380 	and.w	r3, r3, #256	; 0x100
 8001d18:	2b00      	cmp	r3, #0
 8001d1a:	d0ef      	beq.n	8001cfc <HAL_RCCEx_PeriphCLKConfig+0x68>
      }
    }

    if(ret == HAL_OK)
 8001d1c:	7cfb      	ldrb	r3, [r7, #19]
 8001d1e:	2b00      	cmp	r3, #0
 8001d20:	d15a      	bne.n	8001dd8 <HAL_RCCEx_PeriphCLKConfig+0x144>
    {
      /* Reset the Backup domain only if the RTC Clock source selection is modified from default */
      tmpregister = READ_BIT(RCC->BDCR, RCC_BDCR_RTCSEL);
 8001d22:	4b2b      	ldr	r3, [pc, #172]	; (8001dd0 <HAL_RCCEx_PeriphCLKConfig+0x13c>)
 8001d24:	f8d3 3090 	ldr.w	r3, [r3, #144]	; 0x90
 8001d28:	f403 7340 	and.w	r3, r3, #768	; 0x300
 8001d2c:	617b      	str	r3, [r7, #20]

      if((tmpregister != RCC_RTCCLKSOURCE_NONE) && (tmpregister != PeriphClkInit->RTCClockSelection))
 8001d2e:	697b      	ldr	r3, [r7, #20]
 8001d30:	2b00      	cmp	r3, #0
 8001d32:	d01e      	beq.n	8001d72 <HAL_RCCEx_PeriphCLKConfig+0xde>
 8001d34:	687b      	ldr	r3, [r7, #4]
 8001d36:	6b1b      	ldr	r3, [r3, #48]	; 0x30
 8001d38:	697a      	ldr	r2, [r7, #20]
 8001d3a:	429a      	cmp	r2, r3
 8001d3c:	d019      	beq.n	8001d72 <HAL_RCCEx_PeriphCLKConfig+0xde>
      {
        /* Store the content of BDCR register before the reset of Backup Domain */
        tmpregister = READ_BIT(RCC->BDCR, ~(RCC_BDCR_RTCSEL));
 8001d3e:	4b24      	ldr	r3, [pc, #144]	; (8001dd0 <HAL_RCCEx_PeriphCLKConfig+0x13c>)
 8001d40:	f8d3 3090 	ldr.w	r3, [r3, #144]	; 0x90
 8001d44:	f423 7340 	bic.w	r3, r3, #768	; 0x300
 8001d48:	617b      	str	r3, [r7, #20]
        /* RTC Clock selection can be changed only if the Backup Domain is reset */
        __HAL_RCC_BACKUPRESET_FORCE();
 8001d4a:	4b21      	ldr	r3, [pc, #132]	; (8001dd0 <HAL_RCCEx_PeriphCLKConfig+0x13c>)
 8001d4c:	f8d3 3090 	ldr.w	r3, [r3, #144]	; 0x90
 8001d50:	4a1f      	ldr	r2, [pc, #124]	; (8001dd0 <HAL_RCCEx_PeriphCLKConfig+0x13c>)
 8001d52:	f443 3380 	orr.w	r3, r3, #65536	; 0x10000
 8001d56:	f8c2 3090 	str.w	r3, [r2, #144]	; 0x90
        __HAL_RCC_BACKUPRESET_RELEASE();
 8001d5a:	4b1d      	ldr	r3, [pc, #116]	; (8001dd0 <HAL_RCCEx_PeriphCLKConfig+0x13c>)
 8001d5c:	f8d3 3090 	ldr.w	r3, [r3, #144]	; 0x90
 8001d60:	4a1b      	ldr	r2, [pc, #108]	; (8001dd0 <HAL_RCCEx_PeriphCLKConfig+0x13c>)
 8001d62:	f423 3380 	bic.w	r3, r3, #65536	; 0x10000
 8001d66:	f8c2 3090 	str.w	r3, [r2, #144]	; 0x90
        /* Restore the Content of BDCR register */
        RCC->BDCR = tmpregister;
 8001d6a:	4a19      	ldr	r2, [pc, #100]	; (8001dd0 <HAL_RCCEx_PeriphCLKConfig+0x13c>)
 8001d6c:	697b      	ldr	r3, [r7, #20]
 8001d6e:	f8c2 3090 	str.w	r3, [r2, #144]	; 0x90
      }

      /* Wait for LSE reactivation if LSE was enable prior to Backup Domain reset */
      if (HAL_IS_BIT_SET(tmpregister, RCC_BDCR_LSEON))
 8001d72:	697b      	ldr	r3, [r7, #20]
 8001d74:	f003 0301 	and.w	r3, r3, #1
 8001d78:	2b00      	cmp	r3, #0
 8001d7a:	d016      	beq.n	8001daa <HAL_RCCEx_PeriphCLKConfig+0x116>
      {
        /* Get Start Tick*/
        tickstart = HAL_GetTick();
 8001d7c:	f7fe fde6 	bl	800094c <HAL_GetTick>
 8001d80:	60f8      	str	r0, [r7, #12]

        /* Wait till LSE is ready */
        while(READ_BIT(RCC->BDCR, RCC_BDCR_LSERDY) == 0U)
 8001d82:	e00b      	b.n	8001d9c <HAL_RCCEx_PeriphCLKConfig+0x108>
        {
          if((HAL_GetTick() - tickstart) > RCC_LSE_TIMEOUT_VALUE)
 8001d84:	f7fe fde2 	bl	800094c <HAL_GetTick>
 8001d88:	4602      	mov	r2, r0
 8001d8a:	68fb      	ldr	r3, [r7, #12]
 8001d8c:	1ad3      	subs	r3, r2, r3
 8001d8e:	f241 3288 	movw	r2, #5000	; 0x1388
 8001d92:	4293      	cmp	r3, r2
 8001d94:	d902      	bls.n	8001d9c <HAL_RCCEx_PeriphCLKConfig+0x108>
          {
            ret = HAL_TIMEOUT;
 8001d96:	2303      	movs	r3, #3
 8001d98:	74fb      	strb	r3, [r7, #19]
            break;
 8001d9a:	e006      	b.n	8001daa <HAL_RCCEx_PeriphCLKConfig+0x116>
        while(READ_BIT(RCC->BDCR, RCC_BDCR_LSERDY) == 0U)
 8001d9c:	4b0c      	ldr	r3, [pc, #48]	; (8001dd0 <HAL_RCCEx_PeriphCLKConfig+0x13c>)
 8001d9e:	f8d3 3090 	ldr.w	r3, [r3, #144]	; 0x90
 8001da2:	f003 0302 	and.w	r3, r3, #2
 8001da6:	2b00      	cmp	r3, #0
 8001da8:	d0ec      	beq.n	8001d84 <HAL_RCCEx_PeriphCLKConfig+0xf0>
          }
        }
      }

      if(ret == HAL_OK)
 8001daa:	7cfb      	ldrb	r3, [r7, #19]
 8001dac:	2b00      	cmp	r3, #0
 8001dae:	d10b      	bne.n	8001dc8 <HAL_RCCEx_PeriphCLKConfig+0x134>
      {
        /* Apply new RTC clock source selection */
        __HAL_RCC_RTC_CONFIG(PeriphClkInit->RTCClockSelection);
 8001db0:	4b07      	ldr	r3, [pc, #28]	; (8001dd0 <HAL_RCCEx_PeriphCLKConfig+0x13c>)
 8001db2:	f8d3 3090 	ldr.w	r3, [r3, #144]	; 0x90
 8001db6:	f423 7240 	bic.w	r2, r3, #768	; 0x300
 8001dba:	687b      	ldr	r3, [r7, #4]
 8001dbc:	6b1b      	ldr	r3, [r3, #48]	; 0x30
 8001dbe:	4904      	ldr	r1, [pc, #16]	; (8001dd0 <HAL_RCCEx_PeriphCLKConfig+0x13c>)
 8001dc0:	4313      	orrs	r3, r2
 8001dc2:	f8c1 3090 	str.w	r3, [r1, #144]	; 0x90
 8001dc6:	e009      	b.n	8001ddc <HAL_RCCEx_PeriphCLKConfig+0x148>
      }
      else
      {
        /* set overall return value */
        status = ret;
 8001dc8:	7cfb      	ldrb	r3, [r7, #19]
 8001dca:	74bb      	strb	r3, [r7, #18]
 8001dcc:	e006      	b.n	8001ddc <HAL_RCCEx_PeriphCLKConfig+0x148>
 8001dce:	bf00      	nop
 8001dd0:	40021000 	.word	0x40021000
 8001dd4:	40007000 	.word	0x40007000
      }
    }
    else
    {
      /* set overall return value */
      status = ret;
 8001dd8:	7cfb      	ldrb	r3, [r7, #19]
 8001dda:	74bb      	strb	r3, [r7, #18]
    }

    /* Restore clock configuration if changed */
    if(pwrclkchanged == SET)
 8001ddc:	7c7b      	ldrb	r3, [r7, #17]
 8001dde:	2b01      	cmp	r3, #1
 8001de0:	d105      	bne.n	8001dee <HAL_RCCEx_PeriphCLKConfig+0x15a>
    {
      __HAL_RCC_PWR_CLK_DISABLE();
 8001de2:	4b6e      	ldr	r3, [pc, #440]	; (8001f9c <HAL_RCCEx_PeriphCLKConfig+0x308>)
 8001de4:	6d9b      	ldr	r3, [r3, #88]	; 0x58
 8001de6:	4a6d      	ldr	r2, [pc, #436]	; (8001f9c <HAL_RCCEx_PeriphCLKConfig+0x308>)
 8001de8:	f023 5380 	bic.w	r3, r3, #268435456	; 0x10000000
 8001dec:	6593      	str	r3, [r2, #88]	; 0x58
    }
  }

  /*-------------------------- USART1 clock source configuration -------------------*/
  if(((PeriphClkInit->PeriphClockSelection) & RCC_PERIPHCLK_USART1) == RCC_PERIPHCLK_USART1)
 8001dee:	687b      	ldr	r3, [r7, #4]
 8001df0:	681b      	ldr	r3, [r3, #0]
 8001df2:	f003 0301 	and.w	r3, r3, #1
 8001df6:	2b00      	cmp	r3, #0
 8001df8:	d00a      	beq.n	8001e10 <HAL_RCCEx_PeriphCLKConfig+0x17c>
  {
    /* Check the parameters */
    assert_param(IS_RCC_USART1CLKSOURCE(PeriphClkInit->Usart1ClockSelection));

    /* Configure the USART1 clock source */
    __HAL_RCC_USART1_CONFIG(PeriphClkInit->Usart1ClockSelection);
 8001dfa:	4b68      	ldr	r3, [pc, #416]	; (8001f9c <HAL_RCCEx_PeriphCLKConfig+0x308>)
 8001dfc:	f8d3 3088 	ldr.w	r3, [r3, #136]	; 0x88
 8001e00:	f023 0203 	bic.w	r2, r3, #3
 8001e04:	687b      	ldr	r3, [r7, #4]
 8001e06:	685b      	ldr	r3, [r3, #4]
 8001e08:	4964      	ldr	r1, [pc, #400]	; (8001f9c <HAL_RCCEx_PeriphCLKConfig+0x308>)
 8001e0a:	4313      	orrs	r3, r2
 8001e0c:	f8c1 3088 	str.w	r3, [r1, #136]	; 0x88
  }

  /*-------------------------- USART2 clock source configuration -------------------*/
  if(((PeriphClkInit->PeriphClockSelection) & RCC_PERIPHCLK_USART2) == RCC_PERIPHCLK_USART2)
 8001e10:	687b      	ldr	r3, [r7, #4]
 8001e12:	681b      	ldr	r3, [r3, #0]
 8001e14:	f003 0302 	and.w	r3, r3, #2
 8001e18:	2b00      	cmp	r3, #0
 8001e1a:	d00a      	beq.n	8001e32 <HAL_RCCEx_PeriphCLKConfig+0x19e>
  {
    /* Check the parameters */
    assert_param(IS_RCC_USART2CLKSOURCE(PeriphClkInit->Usart2ClockSelection));

    /* Configure the USART2 clock source */
    __HAL_RCC_USART2_CONFIG(PeriphClkInit->Usart2ClockSelection);
 8001e1c:	4b5f      	ldr	r3, [pc, #380]	; (8001f9c <HAL_RCCEx_PeriphCLKConfig+0x308>)
 8001e1e:	f8d3 3088 	ldr.w	r3, [r3, #136]	; 0x88
 8001e22:	f023 020c 	bic.w	r2, r3, #12
 8001e26:	687b      	ldr	r3, [r7, #4]
 8001e28:	689b      	ldr	r3, [r3, #8]
 8001e2a:	495c      	ldr	r1, [pc, #368]	; (8001f9c <HAL_RCCEx_PeriphCLKConfig+0x308>)
 8001e2c:	4313      	orrs	r3, r2
 8001e2e:	f8c1 3088 	str.w	r3, [r1, #136]	; 0x88
  }

#if defined(USART3)

  /*-------------------------- USART3 clock source configuration -------------------*/
  if(((PeriphClkInit->PeriphClockSelection) & RCC_PERIPHCLK_USART3) == RCC_PERIPHCLK_USART3)
 8001e32:	687b      	ldr	r3, [r7, #4]
 8001e34:	681b      	ldr	r3, [r3, #0]
 8001e36:	f003 0304 	and.w	r3, r3, #4
 8001e3a:	2b00      	cmp	r3, #0
 8001e3c:	d00a      	beq.n	8001e54 <HAL_RCCEx_PeriphCLKConfig+0x1c0>
  {
    /* Check the parameters */
    assert_param(IS_RCC_USART3CLKSOURCE(PeriphClkInit->Usart3ClockSelection));

    /* Configure the USART3 clock source */
    __HAL_RCC_USART3_CONFIG(PeriphClkInit->Usart3ClockSelection);
 8001e3e:	4b57      	ldr	r3, [pc, #348]	; (8001f9c <HAL_RCCEx_PeriphCLKConfig+0x308>)
 8001e40:	f8d3 3088 	ldr.w	r3, [r3, #136]	; 0x88
 8001e44:	f023 0230 	bic.w	r2, r3, #48	; 0x30
 8001e48:	687b      	ldr	r3, [r7, #4]
 8001e4a:	68db      	ldr	r3, [r3, #12]
 8001e4c:	4953      	ldr	r1, [pc, #332]	; (8001f9c <HAL_RCCEx_PeriphCLKConfig+0x308>)
 8001e4e:	4313      	orrs	r3, r2
 8001e50:	f8c1 3088 	str.w	r3, [r1, #136]	; 0x88
  }

#endif /* UART5 */

  /*-------------------------- LPUART1 clock source configuration ------------------*/
  if(((PeriphClkInit->PeriphClockSelection) & RCC_PERIPHCLK_LPUART1) == RCC_PERIPHCLK_LPUART1)
 8001e54:	687b      	ldr	r3, [r7, #4]
 8001e56:	681b      	ldr	r3, [r3, #0]
 8001e58:	f003 0320 	and.w	r3, r3, #32
 8001e5c:	2b00      	cmp	r3, #0
 8001e5e:	d00a      	beq.n	8001e76 <HAL_RCCEx_PeriphCLKConfig+0x1e2>
  {
    /* Check the parameters */
    assert_param(IS_RCC_LPUART1CLKSOURCE(PeriphClkInit->Lpuart1ClockSelection));

    /* Configure the LPUART1 clock source */
    __HAL_RCC_LPUART1_CONFIG(PeriphClkInit->Lpuart1ClockSelection);
 8001e60:	4b4e      	ldr	r3, [pc, #312]	; (8001f9c <HAL_RCCEx_PeriphCLKConfig+0x308>)
 8001e62:	f8d3 3088 	ldr.w	r3, [r3, #136]	; 0x88
 8001e66:	f423 6240 	bic.w	r2, r3, #3072	; 0xc00
 8001e6a:	687b      	ldr	r3, [r7, #4]
 8001e6c:	691b      	ldr	r3, [r3, #16]
 8001e6e:	494b      	ldr	r1, [pc, #300]	; (8001f9c <HAL_RCCEx_PeriphCLKConfig+0x308>)
 8001e70:	4313      	orrs	r3, r2
 8001e72:	f8c1 3088 	str.w	r3, [r1, #136]	; 0x88
  }

  /*-------------------------- LPTIM1 clock source configuration -------------------*/
  if(((PeriphClkInit->PeriphClockSelection) & RCC_PERIPHCLK_LPTIM1) == (RCC_PERIPHCLK_LPTIM1))
 8001e76:	687b      	ldr	r3, [r7, #4]
 8001e78:	681b      	ldr	r3, [r3, #0]
 8001e7a:	f403 7300 	and.w	r3, r3, #512	; 0x200
 8001e7e:	2b00      	cmp	r3, #0
 8001e80:	d00a      	beq.n	8001e98 <HAL_RCCEx_PeriphCLKConfig+0x204>
  {
    assert_param(IS_RCC_LPTIM1CLK(PeriphClkInit->Lptim1ClockSelection));
    __HAL_RCC_LPTIM1_CONFIG(PeriphClkInit->Lptim1ClockSelection);
 8001e82:	4b46      	ldr	r3, [pc, #280]	; (8001f9c <HAL_RCCEx_PeriphCLKConfig+0x308>)
 8001e84:	f8d3 3088 	ldr.w	r3, [r3, #136]	; 0x88
 8001e88:	f423 2240 	bic.w	r2, r3, #786432	; 0xc0000
 8001e8c:	687b      	ldr	r3, [r7, #4]
 8001e8e:	6a1b      	ldr	r3, [r3, #32]
 8001e90:	4942      	ldr	r1, [pc, #264]	; (8001f9c <HAL_RCCEx_PeriphCLKConfig+0x308>)
 8001e92:	4313      	orrs	r3, r2
 8001e94:	f8c1 3088 	str.w	r3, [r1, #136]	; 0x88
  }

  /*-------------------------- LPTIM2 clock source configuration -------------------*/
  if(((PeriphClkInit->PeriphClockSelection) & RCC_PERIPHCLK_LPTIM2) == (RCC_PERIPHCLK_LPTIM2))
 8001e98:	687b      	ldr	r3, [r7, #4]
 8001e9a:	681b      	ldr	r3, [r3, #0]
 8001e9c:	f403 6380 	and.w	r3, r3, #1024	; 0x400
 8001ea0:	2b00      	cmp	r3, #0
 8001ea2:	d00a      	beq.n	8001eba <HAL_RCCEx_PeriphCLKConfig+0x226>
  {
    assert_param(IS_RCC_LPTIM2CLK(PeriphClkInit->Lptim2ClockSelection));
    __HAL_RCC_LPTIM2_CONFIG(PeriphClkInit->Lptim2ClockSelection);
 8001ea4:	4b3d      	ldr	r3, [pc, #244]	; (8001f9c <HAL_RCCEx_PeriphCLKConfig+0x308>)
 8001ea6:	f8d3 3088 	ldr.w	r3, [r3, #136]	; 0x88
 8001eaa:	f423 1240 	bic.w	r2, r3, #3145728	; 0x300000
 8001eae:	687b      	ldr	r3, [r7, #4]
 8001eb0:	6a5b      	ldr	r3, [r3, #36]	; 0x24
 8001eb2:	493a      	ldr	r1, [pc, #232]	; (8001f9c <HAL_RCCEx_PeriphCLKConfig+0x308>)
 8001eb4:	4313      	orrs	r3, r2
 8001eb6:	f8c1 3088 	str.w	r3, [r1, #136]	; 0x88
  }

  /*-------------------------- I2C1 clock source configuration ---------------------*/
  if(((PeriphClkInit->PeriphClockSelection) & RCC_PERIPHCLK_I2C1) == RCC_PERIPHCLK_I2C1)
 8001eba:	687b      	ldr	r3, [r7, #4]
 8001ebc:	681b      	ldr	r3, [r3, #0]
 8001ebe:	f003 0340 	and.w	r3, r3, #64	; 0x40
 8001ec2:	2b00      	cmp	r3, #0
 8001ec4:	d00a      	beq.n	8001edc <HAL_RCCEx_PeriphCLKConfig+0x248>
  {
    /* Check the parameters */
    assert_param(IS_RCC_I2C1CLKSOURCE(PeriphClkInit->I2c1ClockSelection));

    /* Configure the I2C1 clock source */
    __HAL_RCC_I2C1_CONFIG(PeriphClkInit->I2c1ClockSelection);
 8001ec6:	4b35      	ldr	r3, [pc, #212]	; (8001f9c <HAL_RCCEx_PeriphCLKConfig+0x308>)
 8001ec8:	f8d3 3088 	ldr.w	r3, [r3, #136]	; 0x88
 8001ecc:	f423 5240 	bic.w	r2, r3, #12288	; 0x3000
 8001ed0:	687b      	ldr	r3, [r7, #4]
 8001ed2:	695b      	ldr	r3, [r3, #20]
 8001ed4:	4931      	ldr	r1, [pc, #196]	; (8001f9c <HAL_RCCEx_PeriphCLKConfig+0x308>)
 8001ed6:	4313      	orrs	r3, r2
 8001ed8:	f8c1 3088 	str.w	r3, [r1, #136]	; 0x88
  }

#if defined(I2C2)

  /*-------------------------- I2C2 clock source configuration ---------------------*/
  if(((PeriphClkInit->PeriphClockSelection) & RCC_PERIPHCLK_I2C2) == RCC_PERIPHCLK_I2C2)
 8001edc:	687b      	ldr	r3, [r7, #4]
 8001ede:	681b      	ldr	r3, [r3, #0]
 8001ee0:	f003 0380 	and.w	r3, r3, #128	; 0x80
 8001ee4:	2b00      	cmp	r3, #0
 8001ee6:	d00a      	beq.n	8001efe <HAL_RCCEx_PeriphCLKConfig+0x26a>
  {
    /* Check the parameters */
    assert_param(IS_RCC_I2C2CLKSOURCE(PeriphClkInit->I2c2ClockSelection));

    /* Configure the I2C2 clock source */
    __HAL_RCC_I2C2_CONFIG(PeriphClkInit->I2c2ClockSelection);
 8001ee8:	4b2c      	ldr	r3, [pc, #176]	; (8001f9c <HAL_RCCEx_PeriphCLKConfig+0x308>)
 8001eea:	f8d3 3088 	ldr.w	r3, [r3, #136]	; 0x88
 8001eee:	f423 4240 	bic.w	r2, r3, #49152	; 0xc000
 8001ef2:	687b      	ldr	r3, [r7, #4]
 8001ef4:	699b      	ldr	r3, [r3, #24]
 8001ef6:	4929      	ldr	r1, [pc, #164]	; (8001f9c <HAL_RCCEx_PeriphCLKConfig+0x308>)
 8001ef8:	4313      	orrs	r3, r2
 8001efa:	f8c1 3088 	str.w	r3, [r1, #136]	; 0x88
  }

#endif /* I2C2 */

  /*-------------------------- I2C3 clock source configuration ---------------------*/
  if(((PeriphClkInit->PeriphClockSelection) & RCC_PERIPHCLK_I2C3) == RCC_PERIPHCLK_I2C3)
 8001efe:	687b      	ldr	r3, [r7, #4]
 8001f00:	681b      	ldr	r3, [r3, #0]
 8001f02:	f403 7380 	and.w	r3, r3, #256	; 0x100
 8001f06:	2b00      	cmp	r3, #0
 8001f08:	d00a      	beq.n	8001f20 <HAL_RCCEx_PeriphCLKConfig+0x28c>
  {
    /* Check the parameters */
    assert_param(IS_RCC_I2C3CLKSOURCE(PeriphClkInit->I2c3ClockSelection));

    /* Configure the I2C3 clock source */
    __HAL_RCC_I2C3_CONFIG(PeriphClkInit->I2c3ClockSelection);
 8001f0a:	4b24      	ldr	r3, [pc, #144]	; (8001f9c <HAL_RCCEx_PeriphCLKConfig+0x308>)
 8001f0c:	f8d3 3088 	ldr.w	r3, [r3, #136]	; 0x88
 8001f10:	f423 3240 	bic.w	r2, r3, #196608	; 0x30000
 8001f14:	687b      	ldr	r3, [r7, #4]
 8001f16:	69db      	ldr	r3, [r3, #28]
 8001f18:	4920      	ldr	r1, [pc, #128]	; (8001f9c <HAL_RCCEx_PeriphCLKConfig+0x308>)
 8001f1a:	4313      	orrs	r3, r2
 8001f1c:	f8c1 3088 	str.w	r3, [r1, #136]	; 0x88
#endif /* I2C4 */

#if defined(USB_OTG_FS) || defined(USB)

  /*-------------------------- USB clock source configuration ----------------------*/
  if(((PeriphClkInit->PeriphClockSelection) & RCC_PERIPHCLK_USB) == (RCC_PERIPHCLK_USB))
 8001f20:	687b      	ldr	r3, [r7, #4]
 8001f22:	681b      	ldr	r3, [r3, #0]
 8001f24:	f403 5300 	and.w	r3, r3, #8192	; 0x2000
 8001f28:	2b00      	cmp	r3, #0
 8001f2a:	d015      	beq.n	8001f58 <HAL_RCCEx_PeriphCLKConfig+0x2c4>
  {
    assert_param(IS_RCC_USBCLKSOURCE(PeriphClkInit->UsbClockSelection));
    __HAL_RCC_USB_CONFIG(PeriphClkInit->UsbClockSelection);
 8001f2c:	4b1b      	ldr	r3, [pc, #108]	; (8001f9c <HAL_RCCEx_PeriphCLKConfig+0x308>)
 8001f2e:	f8d3 3088 	ldr.w	r3, [r3, #136]	; 0x88
 8001f32:	f023 6240 	bic.w	r2, r3, #201326592	; 0xc000000
 8001f36:	687b      	ldr	r3, [r7, #4]
 8001f38:	6a9b      	ldr	r3, [r3, #40]	; 0x28
 8001f3a:	4918      	ldr	r1, [pc, #96]	; (8001f9c <HAL_RCCEx_PeriphCLKConfig+0x308>)
 8001f3c:	4313      	orrs	r3, r2
 8001f3e:	f8c1 3088 	str.w	r3, [r1, #136]	; 0x88

    if(PeriphClkInit->UsbClockSelection == RCC_USBCLKSOURCE_PLL)
 8001f42:	687b      	ldr	r3, [r7, #4]
 8001f44:	6a9b      	ldr	r3, [r3, #40]	; 0x28
 8001f46:	f1b3 6f00 	cmp.w	r3, #134217728	; 0x8000000
 8001f4a:	d105      	bne.n	8001f58 <HAL_RCCEx_PeriphCLKConfig+0x2c4>
    {
      /* Enable PLL48M1CLK output clock */
      __HAL_RCC_PLLCLKOUT_ENABLE(RCC_PLL_48M1CLK);
 8001f4c:	4b13      	ldr	r3, [pc, #76]	; (8001f9c <HAL_RCCEx_PeriphCLKConfig+0x308>)
 8001f4e:	68db      	ldr	r3, [r3, #12]
 8001f50:	4a12      	ldr	r2, [pc, #72]	; (8001f9c <HAL_RCCEx_PeriphCLKConfig+0x308>)
 8001f52:	f443 1380 	orr.w	r3, r3, #1048576	; 0x100000
 8001f56:	60d3      	str	r3, [r2, #12]
  }

#endif /* SDMMC1 */

  /*-------------------------- RNG clock source configuration ----------------------*/
  if(((PeriphClkInit->PeriphClockSelection) & RCC_PERIPHCLK_RNG) == (RCC_PERIPHCLK_RNG))
 8001f58:	687b      	ldr	r3, [r7, #4]
 8001f5a:	681b      	ldr	r3, [r3, #0]
 8001f5c:	f403 2380 	and.w	r3, r3, #262144	; 0x40000
 8001f60:	2b00      	cmp	r3, #0
 8001f62:	d015      	beq.n	8001f90 <HAL_RCCEx_PeriphCLKConfig+0x2fc>
  {
    assert_param(IS_RCC_RNGCLKSOURCE(PeriphClkInit->RngClockSelection));
    __HAL_RCC_RNG_CONFIG(PeriphClkInit->RngClockSelection);
 8001f64:	4b0d      	ldr	r3, [pc, #52]	; (8001f9c <HAL_RCCEx_PeriphCLKConfig+0x308>)
 8001f66:	f8d3 3088 	ldr.w	r3, [r3, #136]	; 0x88
 8001f6a:	f023 6240 	bic.w	r2, r3, #201326592	; 0xc000000
 8001f6e:	687b      	ldr	r3, [r7, #4]
 8001f70:	6adb      	ldr	r3, [r3, #44]	; 0x2c
 8001f72:	490a      	ldr	r1, [pc, #40]	; (8001f9c <HAL_RCCEx_PeriphCLKConfig+0x308>)
 8001f74:	4313      	orrs	r3, r2
 8001f76:	f8c1 3088 	str.w	r3, [r1, #136]	; 0x88

    if(PeriphClkInit->RngClockSelection == RCC_RNGCLKSOURCE_PLL)
 8001f7a:	687b      	ldr	r3, [r7, #4]
 8001f7c:	6adb      	ldr	r3, [r3, #44]	; 0x2c
 8001f7e:	f1b3 6f00 	cmp.w	r3, #134217728	; 0x8000000
 8001f82:	d105      	bne.n	8001f90 <HAL_RCCEx_PeriphCLKConfig+0x2fc>
    {
      /* Enable PLL48M1CLK output clock */
      __HAL_RCC_PLLCLKOUT_ENABLE(RCC_PLL_48M1CLK);
 8001f84:	4b05      	ldr	r3, [pc, #20]	; (8001f9c <HAL_RCCEx_PeriphCLKConfig+0x308>)
 8001f86:	68db      	ldr	r3, [r3, #12]
 8001f88:	4a04      	ldr	r2, [pc, #16]	; (8001f9c <HAL_RCCEx_PeriphCLKConfig+0x308>)
 8001f8a:	f443 1380 	orr.w	r3, r3, #1048576	; 0x100000
 8001f8e:	60d3      	str	r3, [r2, #12]
    }
  }

#endif /* OCTOSPI1 || OCTOSPI2 */

  return status;
 8001f90:	7cbb      	ldrb	r3, [r7, #18]
}
 8001f92:	4618      	mov	r0, r3
 8001f94:	3718      	adds	r7, #24
 8001f96:	46bd      	mov	sp, r7
 8001f98:	bd80      	pop	{r7, pc}
 8001f9a:	bf00      	nop
 8001f9c:	40021000 	.word	0x40021000

08001fa0 <HAL_UART_Init>:
  *        parameters in the UART_InitTypeDef and initialize the associated handle.
  * @param huart UART handle.
  * @retval HAL status
  */
HAL_StatusTypeDef HAL_UART_Init(UART_HandleTypeDef *huart)
{
 8001fa0:	b580      	push	{r7, lr}
 8001fa2:	b082      	sub	sp, #8
 8001fa4:	af00      	add	r7, sp, #0
 8001fa6:	6078      	str	r0, [r7, #4]
  /* Check the UART handle allocation */
  if (huart == NULL)
 8001fa8:	687b      	ldr	r3, [r7, #4]
 8001faa:	2b00      	cmp	r3, #0
 8001fac:	d101      	bne.n	8001fb2 <HAL_UART_Init+0x12>
  {
    return HAL_ERROR;
 8001fae:	2301      	movs	r3, #1
 8001fb0:	e040      	b.n	8002034 <HAL_UART_Init+0x94>
  {
    /* Check the parameters */
    assert_param((IS_UART_INSTANCE(huart->Instance)) || (IS_LPUART_INSTANCE(huart->Instance)));
  }

  if (huart->gState == HAL_UART_STATE_RESET)
 8001fb2:	687b      	ldr	r3, [r7, #4]
 8001fb4:	6f9b      	ldr	r3, [r3, #120]	; 0x78
 8001fb6:	2b00      	cmp	r3, #0
 8001fb8:	d106      	bne.n	8001fc8 <HAL_UART_Init+0x28>
  {
    /* Allocate lock resource and initialize it */
    huart->Lock = HAL_UNLOCKED;
 8001fba:	687b      	ldr	r3, [r7, #4]
 8001fbc:	2200      	movs	r2, #0
 8001fbe:	f883 2074 	strb.w	r2, [r3, #116]	; 0x74

    /* Init the low level hardware */
    huart->MspInitCallback(huart);
#else
    /* Init the low level hardware : GPIO, CLOCK */
    HAL_UART_MspInit(huart);
 8001fc2:	6878      	ldr	r0, [r7, #4]
 8001fc4:	f7fe fbc6 	bl	8000754 <HAL_UART_MspInit>
#endif /* (USE_HAL_UART_REGISTER_CALLBACKS) */
  }

  huart->gState = HAL_UART_STATE_BUSY;
 8001fc8:	687b      	ldr	r3, [r7, #4]
 8001fca:	2224      	movs	r2, #36	; 0x24
 8001fcc:	679a      	str	r2, [r3, #120]	; 0x78

  __HAL_UART_DISABLE(huart);
 8001fce:	687b      	ldr	r3, [r7, #4]
 8001fd0:	681b      	ldr	r3, [r3, #0]
 8001fd2:	681a      	ldr	r2, [r3, #0]
 8001fd4:	687b      	ldr	r3, [r7, #4]
 8001fd6:	681b      	ldr	r3, [r3, #0]
 8001fd8:	f022 0201 	bic.w	r2, r2, #1
 8001fdc:	601a      	str	r2, [r3, #0]

  /* Set the UART Communication parameters */
  if (UART_SetConfig(huart) == HAL_ERROR)
 8001fde:	6878      	ldr	r0, [r7, #4]
 8001fe0:	f000 f82c 	bl	800203c <UART_SetConfig>
 8001fe4:	4603      	mov	r3, r0
 8001fe6:	2b01      	cmp	r3, #1
 8001fe8:	d101      	bne.n	8001fee <HAL_UART_Init+0x4e>
  {
    return HAL_ERROR;
 8001fea:	2301      	movs	r3, #1
 8001fec:	e022      	b.n	8002034 <HAL_UART_Init+0x94>
  }

  if (huart->AdvancedInit.AdvFeatureInit != UART_ADVFEATURE_NO_INIT)
 8001fee:	687b      	ldr	r3, [r7, #4]
 8001ff0:	6a5b      	ldr	r3, [r3, #36]	; 0x24
 8001ff2:	2b00      	cmp	r3, #0
 8001ff4:	d002      	beq.n	8001ffc <HAL_UART_Init+0x5c>
  {
    UART_AdvFeatureConfig(huart);
 8001ff6:	6878      	ldr	r0, [r7, #4]
 8001ff8:	f000 fa7a 	bl	80024f0 <UART_AdvFeatureConfig>
  }

  /* In asynchronous mode, the following bits must be kept cleared:
  - LINEN and CLKEN bits in the USART_CR2 register,
  - SCEN, HDSEL and IREN  bits in the USART_CR3 register.*/
  CLEAR_BIT(huart->Instance->CR2, (USART_CR2_LINEN | USART_CR2_CLKEN));
 8001ffc:	687b      	ldr	r3, [r7, #4]
 8001ffe:	681b      	ldr	r3, [r3, #0]
 8002000:	685a      	ldr	r2, [r3, #4]
 8002002:	687b      	ldr	r3, [r7, #4]
 8002004:	681b      	ldr	r3, [r3, #0]
 8002006:	f422 4290 	bic.w	r2, r2, #18432	; 0x4800
 800200a:	605a      	str	r2, [r3, #4]
  CLEAR_BIT(huart->Instance->CR3, (USART_CR3_SCEN | USART_CR3_HDSEL | USART_CR3_IREN));
 800200c:	687b      	ldr	r3, [r7, #4]
 800200e:	681b      	ldr	r3, [r3, #0]
 8002010:	689a      	ldr	r2, [r3, #8]
 8002012:	687b      	ldr	r3, [r7, #4]
 8002014:	681b      	ldr	r3, [r3, #0]
 8002016:	f022 022a 	bic.w	r2, r2, #42	; 0x2a
 800201a:	609a      	str	r2, [r3, #8]

  __HAL_UART_ENABLE(huart);
 800201c:	687b      	ldr	r3, [r7, #4]
 800201e:	681b      	ldr	r3, [r3, #0]
 8002020:	681a      	ldr	r2, [r3, #0]
 8002022:	687b      	ldr	r3, [r7, #4]
 8002024:	681b      	ldr	r3, [r3, #0]
 8002026:	f042 0201 	orr.w	r2, r2, #1
 800202a:	601a      	str	r2, [r3, #0]

  /* TEACK and/or REACK to check before moving huart->gState and huart->RxState to Ready */
  return (UART_CheckIdleState(huart));
 800202c:	6878      	ldr	r0, [r7, #4]
 800202e:	f000 fb01 	bl	8002634 <UART_CheckIdleState>
 8002032:	4603      	mov	r3, r0
}
 8002034:	4618      	mov	r0, r3
 8002036:	3708      	adds	r7, #8
 8002038:	46bd      	mov	sp, r7
 800203a:	bd80      	pop	{r7, pc}

0800203c <UART_SetConfig>:
  * @brief Configure the UART peripheral.
  * @param huart UART handle.
  * @retval HAL status
  */
HAL_StatusTypeDef UART_SetConfig(UART_HandleTypeDef *huart)
{
 800203c:	e92d 4fb0 	stmdb	sp!, {r4, r5, r7, r8, r9, sl, fp, lr}
 8002040:	b08a      	sub	sp, #40	; 0x28
 8002042:	af00      	add	r7, sp, #0
 8002044:	60f8      	str	r0, [r7, #12]
  uint32_t tmpreg;
  uint16_t brrtemp;
  UART_ClockSourceTypeDef clocksource;
  uint32_t usartdiv;
  HAL_StatusTypeDef ret               = HAL_OK;
 8002046:	2300      	movs	r3, #0
 8002048:	f887 3022 	strb.w	r3, [r7, #34]	; 0x22
  *  the UART Word Length, Parity, Mode and oversampling:
  *  set the M bits according to huart->Init.WordLength value
  *  set PCE and PS bits according to huart->Init.Parity value
  *  set TE and RE bits according to huart->Init.Mode value
  *  set OVER8 bit according to huart->Init.OverSampling value */
  tmpreg = (uint32_t)huart->Init.WordLength | huart->Init.Parity | huart->Init.Mode | huart->Init.OverSampling ;
 800204c:	68fb      	ldr	r3, [r7, #12]
 800204e:	689a      	ldr	r2, [r3, #8]
 8002050:	68fb      	ldr	r3, [r7, #12]
 8002052:	691b      	ldr	r3, [r3, #16]
 8002054:	431a      	orrs	r2, r3
 8002056:	68fb      	ldr	r3, [r7, #12]
 8002058:	695b      	ldr	r3, [r3, #20]
 800205a:	431a      	orrs	r2, r3
 800205c:	68fb      	ldr	r3, [r7, #12]
 800205e:	69db      	ldr	r3, [r3, #28]
 8002060:	4313      	orrs	r3, r2
 8002062:	627b      	str	r3, [r7, #36]	; 0x24
  MODIFY_REG(huart->Instance->CR1, USART_CR1_FIELDS, tmpreg);
 8002064:	68fb      	ldr	r3, [r7, #12]
 8002066:	681b      	ldr	r3, [r3, #0]
 8002068:	681a      	ldr	r2, [r3, #0]
 800206a:	4b9e      	ldr	r3, [pc, #632]	; (80022e4 <UART_SetConfig+0x2a8>)
 800206c:	4013      	ands	r3, r2
 800206e:	68fa      	ldr	r2, [r7, #12]
 8002070:	6812      	ldr	r2, [r2, #0]
 8002072:	6a79      	ldr	r1, [r7, #36]	; 0x24
 8002074:	430b      	orrs	r3, r1
 8002076:	6013      	str	r3, [r2, #0]

  /*-------------------------- USART CR2 Configuration -----------------------*/
  /* Configure the UART Stop Bits: Set STOP[13:12] bits according
  * to huart->Init.StopBits value */
  MODIFY_REG(huart->Instance->CR2, USART_CR2_STOP, huart->Init.StopBits);
 8002078:	68fb      	ldr	r3, [r7, #12]
 800207a:	681b      	ldr	r3, [r3, #0]
 800207c:	685b      	ldr	r3, [r3, #4]
 800207e:	f423 5140 	bic.w	r1, r3, #12288	; 0x3000
 8002082:	68fb      	ldr	r3, [r7, #12]
 8002084:	68da      	ldr	r2, [r3, #12]
 8002086:	68fb      	ldr	r3, [r7, #12]
 8002088:	681b      	ldr	r3, [r3, #0]
 800208a:	430a      	orrs	r2, r1
 800208c:	605a      	str	r2, [r3, #4]
  /* Configure
  * - UART HardWare Flow Control: set CTSE and RTSE bits according
  *   to huart->Init.HwFlowCtl value
  * - one-bit sampling method versus three samples' majority rule according
  *   to huart->Init.OneBitSampling (not applicable to LPUART) */
  tmpreg = (uint32_t)huart->Init.HwFlowCtl;
 800208e:	68fb      	ldr	r3, [r7, #12]
 8002090:	699b      	ldr	r3, [r3, #24]
 8002092:	627b      	str	r3, [r7, #36]	; 0x24

  if (!(UART_INSTANCE_LOWPOWER(huart)))
 8002094:	68fb      	ldr	r3, [r7, #12]
 8002096:	681b      	ldr	r3, [r3, #0]
 8002098:	4a93      	ldr	r2, [pc, #588]	; (80022e8 <UART_SetConfig+0x2ac>)
 800209a:	4293      	cmp	r3, r2
 800209c:	d004      	beq.n	80020a8 <UART_SetConfig+0x6c>
  {
    tmpreg |= huart->Init.OneBitSampling;
 800209e:	68fb      	ldr	r3, [r7, #12]
 80020a0:	6a1b      	ldr	r3, [r3, #32]
 80020a2:	6a7a      	ldr	r2, [r7, #36]	; 0x24
 80020a4:	4313      	orrs	r3, r2
 80020a6:	627b      	str	r3, [r7, #36]	; 0x24
  }
  MODIFY_REG(huart->Instance->CR3, USART_CR3_FIELDS, tmpreg);
 80020a8:	68fb      	ldr	r3, [r7, #12]
 80020aa:	681b      	ldr	r3, [r3, #0]
 80020ac:	689b      	ldr	r3, [r3, #8]
 80020ae:	f423 6130 	bic.w	r1, r3, #2816	; 0xb00
 80020b2:	68fb      	ldr	r3, [r7, #12]
 80020b4:	681b      	ldr	r3, [r3, #0]
 80020b6:	6a7a      	ldr	r2, [r7, #36]	; 0x24
 80020b8:	430a      	orrs	r2, r1
 80020ba:	609a      	str	r2, [r3, #8]
  * - UART Clock Prescaler : set PRESCALER according to huart->Init.ClockPrescaler value */
  MODIFY_REG(huart->Instance->PRESC, USART_PRESC_PRESCALER, huart->Init.ClockPrescaler);
#endif /* USART_PRESC_PRESCALER */

  /*-------------------------- USART BRR Configuration -----------------------*/
  UART_GETCLOCKSOURCE(huart, clocksource);
 80020bc:	68fb      	ldr	r3, [r7, #12]
 80020be:	681b      	ldr	r3, [r3, #0]
 80020c0:	4a8a      	ldr	r2, [pc, #552]	; (80022ec <UART_SetConfig+0x2b0>)
 80020c2:	4293      	cmp	r3, r2
 80020c4:	d126      	bne.n	8002114 <UART_SetConfig+0xd8>
 80020c6:	4b8a      	ldr	r3, [pc, #552]	; (80022f0 <UART_SetConfig+0x2b4>)
 80020c8:	f8d3 3088 	ldr.w	r3, [r3, #136]	; 0x88
 80020cc:	f003 0303 	and.w	r3, r3, #3
 80020d0:	2b03      	cmp	r3, #3
 80020d2:	d81b      	bhi.n	800210c <UART_SetConfig+0xd0>
 80020d4:	a201      	add	r2, pc, #4	; (adr r2, 80020dc <UART_SetConfig+0xa0>)
 80020d6:	f852 f023 	ldr.w	pc, [r2, r3, lsl #2]
 80020da:	bf00      	nop
 80020dc:	080020ed 	.word	0x080020ed
 80020e0:	080020fd 	.word	0x080020fd
 80020e4:	080020f5 	.word	0x080020f5
 80020e8:	08002105 	.word	0x08002105
 80020ec:	2301      	movs	r3, #1
 80020ee:	f887 3023 	strb.w	r3, [r7, #35]	; 0x23
 80020f2:	e0ab      	b.n	800224c <UART_SetConfig+0x210>
 80020f4:	2302      	movs	r3, #2
 80020f6:	f887 3023 	strb.w	r3, [r7, #35]	; 0x23
 80020fa:	e0a7      	b.n	800224c <UART_SetConfig+0x210>
 80020fc:	2304      	movs	r3, #4
 80020fe:	f887 3023 	strb.w	r3, [r7, #35]	; 0x23
 8002102:	e0a3      	b.n	800224c <UART_SetConfig+0x210>
 8002104:	2308      	movs	r3, #8
 8002106:	f887 3023 	strb.w	r3, [r7, #35]	; 0x23
 800210a:	e09f      	b.n	800224c <UART_SetConfig+0x210>
 800210c:	2310      	movs	r3, #16
 800210e:	f887 3023 	strb.w	r3, [r7, #35]	; 0x23
 8002112:	e09b      	b.n	800224c <UART_SetConfig+0x210>
 8002114:	68fb      	ldr	r3, [r7, #12]
 8002116:	681b      	ldr	r3, [r3, #0]
 8002118:	4a76      	ldr	r2, [pc, #472]	; (80022f4 <UART_SetConfig+0x2b8>)
 800211a:	4293      	cmp	r3, r2
 800211c:	d138      	bne.n	8002190 <UART_SetConfig+0x154>
 800211e:	4b74      	ldr	r3, [pc, #464]	; (80022f0 <UART_SetConfig+0x2b4>)
 8002120:	f8d3 3088 	ldr.w	r3, [r3, #136]	; 0x88
 8002124:	f003 030c 	and.w	r3, r3, #12
 8002128:	2b0c      	cmp	r3, #12
 800212a:	d82d      	bhi.n	8002188 <UART_SetConfig+0x14c>
 800212c:	a201      	add	r2, pc, #4	; (adr r2, 8002134 <UART_SetConfig+0xf8>)
 800212e:	f852 f023 	ldr.w	pc, [r2, r3, lsl #2]
 8002132:	bf00      	nop
 8002134:	08002169 	.word	0x08002169
 8002138:	08002189 	.word	0x08002189
 800213c:	08002189 	.word	0x08002189
 8002140:	08002189 	.word	0x08002189
 8002144:	08002179 	.word	0x08002179
 8002148:	08002189 	.word	0x08002189
 800214c:	08002189 	.word	0x08002189
 8002150:	08002189 	.word	0x08002189
 8002154:	08002171 	.word	0x08002171
 8002158:	08002189 	.word	0x08002189
 800215c:	08002189 	.word	0x08002189
 8002160:	08002189 	.word	0x08002189
 8002164:	08002181 	.word	0x08002181
 8002168:	2300      	movs	r3, #0
 800216a:	f887 3023 	strb.w	r3, [r7, #35]	; 0x23
 800216e:	e06d      	b.n	800224c <UART_SetConfig+0x210>
 8002170:	2302      	movs	r3, #2
 8002172:	f887 3023 	strb.w	r3, [r7, #35]	; 0x23
 8002176:	e069      	b.n	800224c <UART_SetConfig+0x210>
 8002178:	2304      	movs	r3, #4
 800217a:	f887 3023 	strb.w	r3, [r7, #35]	; 0x23
 800217e:	e065      	b.n	800224c <UART_SetConfig+0x210>
 8002180:	2308      	movs	r3, #8
 8002182:	f887 3023 	strb.w	r3, [r7, #35]	; 0x23
 8002186:	e061      	b.n	800224c <UART_SetConfig+0x210>
 8002188:	2310      	movs	r3, #16
 800218a:	f887 3023 	strb.w	r3, [r7, #35]	; 0x23
 800218e:	e05d      	b.n	800224c <UART_SetConfig+0x210>
 8002190:	68fb      	ldr	r3, [r7, #12]
 8002192:	681b      	ldr	r3, [r3, #0]
 8002194:	4a58      	ldr	r2, [pc, #352]	; (80022f8 <UART_SetConfig+0x2bc>)
 8002196:	4293      	cmp	r3, r2
 8002198:	d125      	bne.n	80021e6 <UART_SetConfig+0x1aa>
 800219a:	4b55      	ldr	r3, [pc, #340]	; (80022f0 <UART_SetConfig+0x2b4>)
 800219c:	f8d3 3088 	ldr.w	r3, [r3, #136]	; 0x88
 80021a0:	f003 0330 	and.w	r3, r3, #48	; 0x30
 80021a4:	2b30      	cmp	r3, #48	; 0x30
 80021a6:	d016      	beq.n	80021d6 <UART_SetConfig+0x19a>
 80021a8:	2b30      	cmp	r3, #48	; 0x30
 80021aa:	d818      	bhi.n	80021de <UART_SetConfig+0x1a2>
 80021ac:	2b20      	cmp	r3, #32
 80021ae:	d00a      	beq.n	80021c6 <UART_SetConfig+0x18a>
 80021b0:	2b20      	cmp	r3, #32
 80021b2:	d814      	bhi.n	80021de <UART_SetConfig+0x1a2>
 80021b4:	2b00      	cmp	r3, #0
 80021b6:	d002      	beq.n	80021be <UART_SetConfig+0x182>
 80021b8:	2b10      	cmp	r3, #16
 80021ba:	d008      	beq.n	80021ce <UART_SetConfig+0x192>
 80021bc:	e00f      	b.n	80021de <UART_SetConfig+0x1a2>
 80021be:	2300      	movs	r3, #0
 80021c0:	f887 3023 	strb.w	r3, [r7, #35]	; 0x23
 80021c4:	e042      	b.n	800224c <UART_SetConfig+0x210>
 80021c6:	2302      	movs	r3, #2
 80021c8:	f887 3023 	strb.w	r3, [r7, #35]	; 0x23
 80021cc:	e03e      	b.n	800224c <UART_SetConfig+0x210>
 80021ce:	2304      	movs	r3, #4
 80021d0:	f887 3023 	strb.w	r3, [r7, #35]	; 0x23
 80021d4:	e03a      	b.n	800224c <UART_SetConfig+0x210>
 80021d6:	2308      	movs	r3, #8
 80021d8:	f887 3023 	strb.w	r3, [r7, #35]	; 0x23
 80021dc:	e036      	b.n	800224c <UART_SetConfig+0x210>
 80021de:	2310      	movs	r3, #16
 80021e0:	f887 3023 	strb.w	r3, [r7, #35]	; 0x23
 80021e4:	e032      	b.n	800224c <UART_SetConfig+0x210>
 80021e6:	68fb      	ldr	r3, [r7, #12]
 80021e8:	681b      	ldr	r3, [r3, #0]
 80021ea:	4a3f      	ldr	r2, [pc, #252]	; (80022e8 <UART_SetConfig+0x2ac>)
 80021ec:	4293      	cmp	r3, r2
 80021ee:	d12a      	bne.n	8002246 <UART_SetConfig+0x20a>
 80021f0:	4b3f      	ldr	r3, [pc, #252]	; (80022f0 <UART_SetConfig+0x2b4>)
 80021f2:	f8d3 3088 	ldr.w	r3, [r3, #136]	; 0x88
 80021f6:	f403 6340 	and.w	r3, r3, #3072	; 0xc00
 80021fa:	f5b3 6f40 	cmp.w	r3, #3072	; 0xc00
 80021fe:	d01a      	beq.n	8002236 <UART_SetConfig+0x1fa>
 8002200:	f5b3 6f40 	cmp.w	r3, #3072	; 0xc00
 8002204:	d81b      	bhi.n	800223e <UART_SetConfig+0x202>
 8002206:	f5b3 6f00 	cmp.w	r3, #2048	; 0x800
 800220a:	d00c      	beq.n	8002226 <UART_SetConfig+0x1ea>
 800220c:	f5b3 6f00 	cmp.w	r3, #2048	; 0x800
 8002210:	d815      	bhi.n	800223e <UART_SetConfig+0x202>
 8002212:	2b00      	cmp	r3, #0
 8002214:	d003      	beq.n	800221e <UART_SetConfig+0x1e2>
 8002216:	f5b3 6f80 	cmp.w	r3, #1024	; 0x400
 800221a:	d008      	beq.n	800222e <UART_SetConfig+0x1f2>
 800221c:	e00f      	b.n	800223e <UART_SetConfig+0x202>
 800221e:	2300      	movs	r3, #0
 8002220:	f887 3023 	strb.w	r3, [r7, #35]	; 0x23
 8002224:	e012      	b.n	800224c <UART_SetConfig+0x210>
 8002226:	2302      	movs	r3, #2
 8002228:	f887 3023 	strb.w	r3, [r7, #35]	; 0x23
 800222c:	e00e      	b.n	800224c <UART_SetConfig+0x210>
 800222e:	2304      	movs	r3, #4
 8002230:	f887 3023 	strb.w	r3, [r7, #35]	; 0x23
 8002234:	e00a      	b.n	800224c <UART_SetConfig+0x210>
 8002236:	2308      	movs	r3, #8
 8002238:	f887 3023 	strb.w	r3, [r7, #35]	; 0x23
 800223c:	e006      	b.n	800224c <UART_SetConfig+0x210>
 800223e:	2310      	movs	r3, #16
 8002240:	f887 3023 	strb.w	r3, [r7, #35]	; 0x23
 8002244:	e002      	b.n	800224c <UART_SetConfig+0x210>
 8002246:	2310      	movs	r3, #16
 8002248:	f887 3023 	strb.w	r3, [r7, #35]	; 0x23

  /* Check LPUART instance */
  if (UART_INSTANCE_LOWPOWER(huart))
 800224c:	68fb      	ldr	r3, [r7, #12]
 800224e:	681b      	ldr	r3, [r3, #0]
 8002250:	4a25      	ldr	r2, [pc, #148]	; (80022e8 <UART_SetConfig+0x2ac>)
 8002252:	4293      	cmp	r3, r2
 8002254:	f040 808a 	bne.w	800236c <UART_SetConfig+0x330>
  {
    /* Retrieve frequency clock */
    switch (clocksource)
 8002258:	f897 3023 	ldrb.w	r3, [r7, #35]	; 0x23
 800225c:	2b08      	cmp	r3, #8
 800225e:	d824      	bhi.n	80022aa <UART_SetConfig+0x26e>
 8002260:	a201      	add	r2, pc, #4	; (adr r2, 8002268 <UART_SetConfig+0x22c>)
 8002262:	f852 f023 	ldr.w	pc, [r2, r3, lsl #2]
 8002266:	bf00      	nop
 8002268:	0800228d 	.word	0x0800228d
 800226c:	080022ab 	.word	0x080022ab
 8002270:	08002295 	.word	0x08002295
 8002274:	080022ab 	.word	0x080022ab
 8002278:	0800229b 	.word	0x0800229b
 800227c:	080022ab 	.word	0x080022ab
 8002280:	080022ab 	.word	0x080022ab
 8002284:	080022ab 	.word	0x080022ab
 8002288:	080022a3 	.word	0x080022a3
    {
      case UART_CLOCKSOURCE_PCLK1:
        pclk = HAL_RCC_GetPCLK1Freq();
 800228c:	f7ff fc76 	bl	8001b7c <HAL_RCC_GetPCLK1Freq>
 8002290:	61f8      	str	r0, [r7, #28]
        break;
 8002292:	e010      	b.n	80022b6 <UART_SetConfig+0x27a>
      case UART_CLOCKSOURCE_HSI:
        pclk = (uint32_t) HSI_VALUE;
 8002294:	4b19      	ldr	r3, [pc, #100]	; (80022fc <UART_SetConfig+0x2c0>)
 8002296:	61fb      	str	r3, [r7, #28]
        break;
 8002298:	e00d      	b.n	80022b6 <UART_SetConfig+0x27a>
      case UART_CLOCKSOURCE_SYSCLK:
        pclk = HAL_RCC_GetSysClockFreq();
 800229a:	f7ff fbd7 	bl	8001a4c <HAL_RCC_GetSysClockFreq>
 800229e:	61f8      	str	r0, [r7, #28]
        break;
 80022a0:	e009      	b.n	80022b6 <UART_SetConfig+0x27a>
      case UART_CLOCKSOURCE_LSE:
        pclk = (uint32_t) LSE_VALUE;
 80022a2:	f44f 4300 	mov.w	r3, #32768	; 0x8000
 80022a6:	61fb      	str	r3, [r7, #28]
        break;
 80022a8:	e005      	b.n	80022b6 <UART_SetConfig+0x27a>
      default:
        pclk = 0U;
 80022aa:	2300      	movs	r3, #0
 80022ac:	61fb      	str	r3, [r7, #28]
        ret = HAL_ERROR;
 80022ae:	2301      	movs	r3, #1
 80022b0:	f887 3022 	strb.w	r3, [r7, #34]	; 0x22
        break;
 80022b4:	bf00      	nop
    }

    /* If proper clock source reported */
    if (pclk != 0U)
 80022b6:	69fb      	ldr	r3, [r7, #28]
 80022b8:	2b00      	cmp	r3, #0
 80022ba:	f000 8109 	beq.w	80024d0 <UART_SetConfig+0x494>
      } /* if ( (lpuart_ker_ck_pres < (3 * huart->Init.BaudRate) ) ||
                (lpuart_ker_ck_pres > (4096 * huart->Init.BaudRate) )) */
#else
      /* No Prescaler applicable */
      /* Ensure that Frequency clock is in the range [3 * baudrate, 4096 * baudrate] */
      if ((pclk < (3U * huart->Init.BaudRate)) ||
 80022be:	68fb      	ldr	r3, [r7, #12]
 80022c0:	685a      	ldr	r2, [r3, #4]
 80022c2:	4613      	mov	r3, r2
 80022c4:	005b      	lsls	r3, r3, #1
 80022c6:	4413      	add	r3, r2
 80022c8:	69fa      	ldr	r2, [r7, #28]
 80022ca:	429a      	cmp	r2, r3
 80022cc:	d305      	bcc.n	80022da <UART_SetConfig+0x29e>
          (pclk > (4096U * huart->Init.BaudRate)))
 80022ce:	68fb      	ldr	r3, [r7, #12]
 80022d0:	685b      	ldr	r3, [r3, #4]
 80022d2:	031b      	lsls	r3, r3, #12
      if ((pclk < (3U * huart->Init.BaudRate)) ||
 80022d4:	69fa      	ldr	r2, [r7, #28]
 80022d6:	429a      	cmp	r2, r3
 80022d8:	d912      	bls.n	8002300 <UART_SetConfig+0x2c4>
      {
        ret = HAL_ERROR;
 80022da:	2301      	movs	r3, #1
 80022dc:	f887 3022 	strb.w	r3, [r7, #34]	; 0x22
 80022e0:	e0f6      	b.n	80024d0 <UART_SetConfig+0x494>
 80022e2:	bf00      	nop
 80022e4:	efff69f3 	.word	0xefff69f3
 80022e8:	40008000 	.word	0x40008000
 80022ec:	40013800 	.word	0x40013800
 80022f0:	40021000 	.word	0x40021000
 80022f4:	40004400 	.word	0x40004400
 80022f8:	40004800 	.word	0x40004800
 80022fc:	00f42400 	.word	0x00f42400
      }
      else
      {
        usartdiv = (uint32_t)(UART_DIV_LPUART(pclk, huart->Init.BaudRate));
 8002300:	69fb      	ldr	r3, [r7, #28]
 8002302:	2200      	movs	r2, #0
 8002304:	461c      	mov	r4, r3
 8002306:	4615      	mov	r5, r2
 8002308:	f04f 0200 	mov.w	r2, #0
 800230c:	f04f 0300 	mov.w	r3, #0
 8002310:	022b      	lsls	r3, r5, #8
 8002312:	ea43 6314 	orr.w	r3, r3, r4, lsr #24
 8002316:	0222      	lsls	r2, r4, #8
 8002318:	68f9      	ldr	r1, [r7, #12]
 800231a:	6849      	ldr	r1, [r1, #4]
 800231c:	0849      	lsrs	r1, r1, #1
 800231e:	2000      	movs	r0, #0
 8002320:	4688      	mov	r8, r1
 8002322:	4681      	mov	r9, r0
 8002324:	eb12 0a08 	adds.w	sl, r2, r8
 8002328:	eb43 0b09 	adc.w	fp, r3, r9
 800232c:	68fb      	ldr	r3, [r7, #12]
 800232e:	685b      	ldr	r3, [r3, #4]
 8002330:	2200      	movs	r2, #0
 8002332:	603b      	str	r3, [r7, #0]
 8002334:	607a      	str	r2, [r7, #4]
 8002336:	e9d7 2300 	ldrd	r2, r3, [r7]
 800233a:	4650      	mov	r0, sl
 800233c:	4659      	mov	r1, fp
 800233e:	f7fd ff45 	bl	80001cc <__aeabi_uldivmod>
 8002342:	4602      	mov	r2, r0
 8002344:	460b      	mov	r3, r1
 8002346:	4613      	mov	r3, r2
 8002348:	61bb      	str	r3, [r7, #24]
        if ((usartdiv >= LPUART_BRR_MIN) && (usartdiv <= LPUART_BRR_MAX))
 800234a:	69bb      	ldr	r3, [r7, #24]
 800234c:	f5b3 7f40 	cmp.w	r3, #768	; 0x300
 8002350:	d308      	bcc.n	8002364 <UART_SetConfig+0x328>
 8002352:	69bb      	ldr	r3, [r7, #24]
 8002354:	f5b3 1f80 	cmp.w	r3, #1048576	; 0x100000
 8002358:	d204      	bcs.n	8002364 <UART_SetConfig+0x328>
        {
          huart->Instance->BRR = usartdiv;
 800235a:	68fb      	ldr	r3, [r7, #12]
 800235c:	681b      	ldr	r3, [r3, #0]
 800235e:	69ba      	ldr	r2, [r7, #24]
 8002360:	60da      	str	r2, [r3, #12]
 8002362:	e0b5      	b.n	80024d0 <UART_SetConfig+0x494>
        }
        else
        {
          ret = HAL_ERROR;
 8002364:	2301      	movs	r3, #1
 8002366:	f887 3022 	strb.w	r3, [r7, #34]	; 0x22
 800236a:	e0b1      	b.n	80024d0 <UART_SetConfig+0x494>
      } /* if ( (pclk < (3 * huart->Init.BaudRate) ) || (pclk > (4096 * huart->Init.BaudRate) )) */
#endif /* USART_PRESC_PRESCALER */
    } /* if (pclk != 0) */
  }
  /* Check UART Over Sampling to set Baud Rate Register */
  else if (huart->Init.OverSampling == UART_OVERSAMPLING_8)
 800236c:	68fb      	ldr	r3, [r7, #12]
 800236e:	69db      	ldr	r3, [r3, #28]
 8002370:	f5b3 4f00 	cmp.w	r3, #32768	; 0x8000
 8002374:	d15d      	bne.n	8002432 <UART_SetConfig+0x3f6>
  {
    switch (clocksource)
 8002376:	f897 3023 	ldrb.w	r3, [r7, #35]	; 0x23
 800237a:	2b08      	cmp	r3, #8
 800237c:	d827      	bhi.n	80023ce <UART_SetConfig+0x392>
 800237e:	a201      	add	r2, pc, #4	; (adr r2, 8002384 <UART_SetConfig+0x348>)
 8002380:	f852 f023 	ldr.w	pc, [r2, r3, lsl #2]
 8002384:	080023a9 	.word	0x080023a9
 8002388:	080023b1 	.word	0x080023b1
 800238c:	080023b9 	.word	0x080023b9
 8002390:	080023cf 	.word	0x080023cf
 8002394:	080023bf 	.word	0x080023bf
 8002398:	080023cf 	.word	0x080023cf
 800239c:	080023cf 	.word	0x080023cf
 80023a0:	080023cf 	.word	0x080023cf
 80023a4:	080023c7 	.word	0x080023c7
    {
      case UART_CLOCKSOURCE_PCLK1:
        pclk = HAL_RCC_GetPCLK1Freq();
 80023a8:	f7ff fbe8 	bl	8001b7c <HAL_RCC_GetPCLK1Freq>
 80023ac:	61f8      	str	r0, [r7, #28]
        break;
 80023ae:	e014      	b.n	80023da <UART_SetConfig+0x39e>
      case UART_CLOCKSOURCE_PCLK2:
        pclk = HAL_RCC_GetPCLK2Freq();
 80023b0:	f7ff fbfa 	bl	8001ba8 <HAL_RCC_GetPCLK2Freq>
 80023b4:	61f8      	str	r0, [r7, #28]
        break;
 80023b6:	e010      	b.n	80023da <UART_SetConfig+0x39e>
      case UART_CLOCKSOURCE_HSI:
        pclk = (uint32_t) HSI_VALUE;
 80023b8:	4b4c      	ldr	r3, [pc, #304]	; (80024ec <UART_SetConfig+0x4b0>)
 80023ba:	61fb      	str	r3, [r7, #28]
        break;
 80023bc:	e00d      	b.n	80023da <UART_SetConfig+0x39e>
      case UART_CLOCKSOURCE_SYSCLK:
        pclk = HAL_RCC_GetSysClockFreq();
 80023be:	f7ff fb45 	bl	8001a4c <HAL_RCC_GetSysClockFreq>
 80023c2:	61f8      	str	r0, [r7, #28]
        break;
 80023c4:	e009      	b.n	80023da <UART_SetConfig+0x39e>
      case UART_CLOCKSOURCE_LSE:
        pclk = (uint32_t) LSE_VALUE;
 80023c6:	f44f 4300 	mov.w	r3, #32768	; 0x8000
 80023ca:	61fb      	str	r3, [r7, #28]
        break;
 80023cc:	e005      	b.n	80023da <UART_SetConfig+0x39e>
      default:
        pclk = 0U;
 80023ce:	2300      	movs	r3, #0
 80023d0:	61fb      	str	r3, [r7, #28]
        ret = HAL_ERROR;
 80023d2:	2301      	movs	r3, #1
 80023d4:	f887 3022 	strb.w	r3, [r7, #34]	; 0x22
        break;
 80023d8:	bf00      	nop
    }

    /* USARTDIV must be greater than or equal to 0d16 */
    if (pclk != 0U)
 80023da:	69fb      	ldr	r3, [r7, #28]
 80023dc:	2b00      	cmp	r3, #0
 80023de:	d077      	beq.n	80024d0 <UART_SetConfig+0x494>
    {
#if defined(USART_PRESC_PRESCALER)
      usartdiv = (uint32_t)(UART_DIV_SAMPLING8(pclk, huart->Init.BaudRate, huart->Init.ClockPrescaler));
#else
      usartdiv = (uint32_t)(UART_DIV_SAMPLING8(pclk, huart->Init.BaudRate));
 80023e0:	69fb      	ldr	r3, [r7, #28]
 80023e2:	005a      	lsls	r2, r3, #1
 80023e4:	68fb      	ldr	r3, [r7, #12]
 80023e6:	685b      	ldr	r3, [r3, #4]
 80023e8:	085b      	lsrs	r3, r3, #1
 80023ea:	441a      	add	r2, r3
 80023ec:	68fb      	ldr	r3, [r7, #12]
 80023ee:	685b      	ldr	r3, [r3, #4]
 80023f0:	fbb2 f3f3 	udiv	r3, r2, r3
 80023f4:	61bb      	str	r3, [r7, #24]
#endif /* USART_PRESC_PRESCALER */
      if ((usartdiv >= UART_BRR_MIN) && (usartdiv <= UART_BRR_MAX))
 80023f6:	69bb      	ldr	r3, [r7, #24]
 80023f8:	2b0f      	cmp	r3, #15
 80023fa:	d916      	bls.n	800242a <UART_SetConfig+0x3ee>
 80023fc:	69bb      	ldr	r3, [r7, #24]
 80023fe:	f5b3 3f80 	cmp.w	r3, #65536	; 0x10000
 8002402:	d212      	bcs.n	800242a <UART_SetConfig+0x3ee>
      {
        brrtemp = (uint16_t)(usartdiv & 0xFFF0U);
 8002404:	69bb      	ldr	r3, [r7, #24]
 8002406:	b29b      	uxth	r3, r3
 8002408:	f023 030f 	bic.w	r3, r3, #15
 800240c:	82fb      	strh	r3, [r7, #22]
        brrtemp |= (uint16_t)((usartdiv & (uint16_t)0x000FU) >> 1U);
 800240e:	69bb      	ldr	r3, [r7, #24]
 8002410:	085b      	lsrs	r3, r3, #1
 8002412:	b29b      	uxth	r3, r3
 8002414:	f003 0307 	and.w	r3, r3, #7
 8002418:	b29a      	uxth	r2, r3
 800241a:	8afb      	ldrh	r3, [r7, #22]
 800241c:	4313      	orrs	r3, r2
 800241e:	82fb      	strh	r3, [r7, #22]
        huart->Instance->BRR = brrtemp;
 8002420:	68fb      	ldr	r3, [r7, #12]
 8002422:	681b      	ldr	r3, [r3, #0]
 8002424:	8afa      	ldrh	r2, [r7, #22]
 8002426:	60da      	str	r2, [r3, #12]
 8002428:	e052      	b.n	80024d0 <UART_SetConfig+0x494>
      }
      else
      {
        ret = HAL_ERROR;
 800242a:	2301      	movs	r3, #1
 800242c:	f887 3022 	strb.w	r3, [r7, #34]	; 0x22
 8002430:	e04e      	b.n	80024d0 <UART_SetConfig+0x494>
      }
    }
  }
  else
  {
    switch (clocksource)
 8002432:	f897 3023 	ldrb.w	r3, [r7, #35]	; 0x23
 8002436:	2b08      	cmp	r3, #8
 8002438:	d827      	bhi.n	800248a <UART_SetConfig+0x44e>
 800243a:	a201      	add	r2, pc, #4	; (adr r2, 8002440 <UART_SetConfig+0x404>)
 800243c:	f852 f023 	ldr.w	pc, [r2, r3, lsl #2]
 8002440:	08002465 	.word	0x08002465
 8002444:	0800246d 	.word	0x0800246d
 8002448:	08002475 	.word	0x08002475
 800244c:	0800248b 	.word	0x0800248b
 8002450:	0800247b 	.word	0x0800247b
 8002454:	0800248b 	.word	0x0800248b
 8002458:	0800248b 	.word	0x0800248b
 800245c:	0800248b 	.word	0x0800248b
 8002460:	08002483 	.word	0x08002483
    {
      case UART_CLOCKSOURCE_PCLK1:
        pclk = HAL_RCC_GetPCLK1Freq();
 8002464:	f7ff fb8a 	bl	8001b7c <HAL_RCC_GetPCLK1Freq>
 8002468:	61f8      	str	r0, [r7, #28]
        break;
 800246a:	e014      	b.n	8002496 <UART_SetConfig+0x45a>
      case UART_CLOCKSOURCE_PCLK2:
        pclk = HAL_RCC_GetPCLK2Freq();
 800246c:	f7ff fb9c 	bl	8001ba8 <HAL_RCC_GetPCLK2Freq>
 8002470:	61f8      	str	r0, [r7, #28]
        break;
 8002472:	e010      	b.n	8002496 <UART_SetConfig+0x45a>
      case UART_CLOCKSOURCE_HSI:
        pclk = (uint32_t) HSI_VALUE;
 8002474:	4b1d      	ldr	r3, [pc, #116]	; (80024ec <UART_SetConfig+0x4b0>)
 8002476:	61fb      	str	r3, [r7, #28]
        break;
 8002478:	e00d      	b.n	8002496 <UART_SetConfig+0x45a>
      case UART_CLOCKSOURCE_SYSCLK:
        pclk = HAL_RCC_GetSysClockFreq();
 800247a:	f7ff fae7 	bl	8001a4c <HAL_RCC_GetSysClockFreq>
 800247e:	61f8      	str	r0, [r7, #28]
        break;
 8002480:	e009      	b.n	8002496 <UART_SetConfig+0x45a>
      case UART_CLOCKSOURCE_LSE:
        pclk = (uint32_t) LSE_VALUE;
 8002482:	f44f 4300 	mov.w	r3, #32768	; 0x8000
 8002486:	61fb      	str	r3, [r7, #28]
        break;
 8002488:	e005      	b.n	8002496 <UART_SetConfig+0x45a>
      default:
        pclk = 0U;
 800248a:	2300      	movs	r3, #0
 800248c:	61fb      	str	r3, [r7, #28]
        ret = HAL_ERROR;
 800248e:	2301      	movs	r3, #1
 8002490:	f887 3022 	strb.w	r3, [r7, #34]	; 0x22
        break;
 8002494:	bf00      	nop
    }

    if (pclk != 0U)
 8002496:	69fb      	ldr	r3, [r7, #28]
 8002498:	2b00      	cmp	r3, #0
 800249a:	d019      	beq.n	80024d0 <UART_SetConfig+0x494>
    {
      /* USARTDIV must be greater than or equal to 0d16 */
#if defined(USART_PRESC_PRESCALER)
      usartdiv = (uint32_t)(UART_DIV_SAMPLING16(pclk, huart->Init.BaudRate, huart->Init.ClockPrescaler));
#else
      usartdiv = (uint32_t)(UART_DIV_SAMPLING16(pclk, huart->Init.BaudRate));
 800249c:	68fb      	ldr	r3, [r7, #12]
 800249e:	685b      	ldr	r3, [r3, #4]
 80024a0:	085a      	lsrs	r2, r3, #1
 80024a2:	69fb      	ldr	r3, [r7, #28]
 80024a4:	441a      	add	r2, r3
 80024a6:	68fb      	ldr	r3, [r7, #12]
 80024a8:	685b      	ldr	r3, [r3, #4]
 80024aa:	fbb2 f3f3 	udiv	r3, r2, r3
 80024ae:	61bb      	str	r3, [r7, #24]
#endif /* USART_PRESC_PRESCALER */
      if ((usartdiv >= UART_BRR_MIN) && (usartdiv <= UART_BRR_MAX))
 80024b0:	69bb      	ldr	r3, [r7, #24]
 80024b2:	2b0f      	cmp	r3, #15
 80024b4:	d909      	bls.n	80024ca <UART_SetConfig+0x48e>
 80024b6:	69bb      	ldr	r3, [r7, #24]
 80024b8:	f5b3 3f80 	cmp.w	r3, #65536	; 0x10000
 80024bc:	d205      	bcs.n	80024ca <UART_SetConfig+0x48e>
      {
        huart->Instance->BRR = (uint16_t)usartdiv;
 80024be:	69bb      	ldr	r3, [r7, #24]
 80024c0:	b29a      	uxth	r2, r3
 80024c2:	68fb      	ldr	r3, [r7, #12]
 80024c4:	681b      	ldr	r3, [r3, #0]
 80024c6:	60da      	str	r2, [r3, #12]
 80024c8:	e002      	b.n	80024d0 <UART_SetConfig+0x494>
      }
      else
      {
        ret = HAL_ERROR;
 80024ca:	2301      	movs	r3, #1
 80024cc:	f887 3022 	strb.w	r3, [r7, #34]	; 0x22
  huart->NbTxDataToProcess = 1;
  huart->NbRxDataToProcess = 1;
#endif /* USART_CR1_FIFOEN */

  /* Clear ISR function pointers */
  huart->RxISR = NULL;
 80024d0:	68fb      	ldr	r3, [r7, #12]
 80024d2:	2200      	movs	r2, #0
 80024d4:	665a      	str	r2, [r3, #100]	; 0x64
  huart->TxISR = NULL;
 80024d6:	68fb      	ldr	r3, [r7, #12]
 80024d8:	2200      	movs	r2, #0
 80024da:	669a      	str	r2, [r3, #104]	; 0x68

  return ret;
 80024dc:	f897 3022 	ldrb.w	r3, [r7, #34]	; 0x22
}
 80024e0:	4618      	mov	r0, r3
 80024e2:	3728      	adds	r7, #40	; 0x28
 80024e4:	46bd      	mov	sp, r7
 80024e6:	e8bd 8fb0 	ldmia.w	sp!, {r4, r5, r7, r8, r9, sl, fp, pc}
 80024ea:	bf00      	nop
 80024ec:	00f42400 	.word	0x00f42400

080024f0 <UART_AdvFeatureConfig>:
  * @brief Configure the UART peripheral advanced features.
  * @param huart UART handle.
  * @retval None
  */
void UART_AdvFeatureConfig(UART_HandleTypeDef *huart)
{
 80024f0:	b480      	push	{r7}
 80024f2:	b083      	sub	sp, #12
 80024f4:	af00      	add	r7, sp, #0
 80024f6:	6078      	str	r0, [r7, #4]
  /* Check whether the set of advanced features to configure is properly set */
  assert_param(IS_UART_ADVFEATURE_INIT(huart->AdvancedInit.AdvFeatureInit));

  /* if required, configure TX pin active level inversion */
  if (HAL_IS_BIT_SET(huart->AdvancedInit.AdvFeatureInit, UART_ADVFEATURE_TXINVERT_INIT))
 80024f8:	687b      	ldr	r3, [r7, #4]
 80024fa:	6a5b      	ldr	r3, [r3, #36]	; 0x24
 80024fc:	f003 0301 	and.w	r3, r3, #1
 8002500:	2b00      	cmp	r3, #0
 8002502:	d00a      	beq.n	800251a <UART_AdvFeatureConfig+0x2a>
  {
    assert_param(IS_UART_ADVFEATURE_TXINV(huart->AdvancedInit.TxPinLevelInvert));
    MODIFY_REG(huart->Instance->CR2, USART_CR2_TXINV, huart->AdvancedInit.TxPinLevelInvert);
 8002504:	687b      	ldr	r3, [r7, #4]
 8002506:	681b      	ldr	r3, [r3, #0]
 8002508:	685b      	ldr	r3, [r3, #4]
 800250a:	f423 3100 	bic.w	r1, r3, #131072	; 0x20000
 800250e:	687b      	ldr	r3, [r7, #4]
 8002510:	6a9a      	ldr	r2, [r3, #40]	; 0x28
 8002512:	687b      	ldr	r3, [r7, #4]
 8002514:	681b      	ldr	r3, [r3, #0]
 8002516:	430a      	orrs	r2, r1
 8002518:	605a      	str	r2, [r3, #4]
  }

  /* if required, configure RX pin active level inversion */
  if (HAL_IS_BIT_SET(huart->AdvancedInit.AdvFeatureInit, UART_ADVFEATURE_RXINVERT_INIT))
 800251a:	687b      	ldr	r3, [r7, #4]
 800251c:	6a5b      	ldr	r3, [r3, #36]	; 0x24
 800251e:	f003 0302 	and.w	r3, r3, #2
 8002522:	2b00      	cmp	r3, #0
 8002524:	d00a      	beq.n	800253c <UART_AdvFeatureConfig+0x4c>
  {
    assert_param(IS_UART_ADVFEATURE_RXINV(huart->AdvancedInit.RxPinLevelInvert));
    MODIFY_REG(huart->Instance->CR2, USART_CR2_RXINV, huart->AdvancedInit.RxPinLevelInvert);
 8002526:	687b      	ldr	r3, [r7, #4]
 8002528:	681b      	ldr	r3, [r3, #0]
 800252a:	685b      	ldr	r3, [r3, #4]
 800252c:	f423 3180 	bic.w	r1, r3, #65536	; 0x10000
 8002530:	687b      	ldr	r3, [r7, #4]
 8002532:	6ada      	ldr	r2, [r3, #44]	; 0x2c
 8002534:	687b      	ldr	r3, [r7, #4]
 8002536:	681b      	ldr	r3, [r3, #0]
 8002538:	430a      	orrs	r2, r1
 800253a:	605a      	str	r2, [r3, #4]
  }

  /* if required, configure data inversion */
  if (HAL_IS_BIT_SET(huart->AdvancedInit.AdvFeatureInit, UART_ADVFEATURE_DATAINVERT_INIT))
 800253c:	687b      	ldr	r3, [r7, #4]
 800253e:	6a5b      	ldr	r3, [r3, #36]	; 0x24
 8002540:	f003 0304 	and.w	r3, r3, #4
 8002544:	2b00      	cmp	r3, #0
 8002546:	d00a      	beq.n	800255e <UART_AdvFeatureConfig+0x6e>
  {
    assert_param(IS_UART_ADVFEATURE_DATAINV(huart->AdvancedInit.DataInvert));
    MODIFY_REG(huart->Instance->CR2, USART_CR2_DATAINV, huart->AdvancedInit.DataInvert);
 8002548:	687b      	ldr	r3, [r7, #4]
 800254a:	681b      	ldr	r3, [r3, #0]
 800254c:	685b      	ldr	r3, [r3, #4]
 800254e:	f423 2180 	bic.w	r1, r3, #262144	; 0x40000
 8002552:	687b      	ldr	r3, [r7, #4]
 8002554:	6b1a      	ldr	r2, [r3, #48]	; 0x30
 8002556:	687b      	ldr	r3, [r7, #4]
 8002558:	681b      	ldr	r3, [r3, #0]
 800255a:	430a      	orrs	r2, r1
 800255c:	605a      	str	r2, [r3, #4]
  }

  /* if required, configure RX/TX pins swap */
  if (HAL_IS_BIT_SET(huart->AdvancedInit.AdvFeatureInit, UART_ADVFEATURE_SWAP_INIT))
 800255e:	687b      	ldr	r3, [r7, #4]
 8002560:	6a5b      	ldr	r3, [r3, #36]	; 0x24
 8002562:	f003 0308 	and.w	r3, r3, #8
 8002566:	2b00      	cmp	r3, #0
 8002568:	d00a      	beq.n	8002580 <UART_AdvFeatureConfig+0x90>
  {
    assert_param(IS_UART_ADVFEATURE_SWAP(huart->AdvancedInit.Swap));
    MODIFY_REG(huart->Instance->CR2, USART_CR2_SWAP, huart->AdvancedInit.Swap);
 800256a:	687b      	ldr	r3, [r7, #4]
 800256c:	681b      	ldr	r3, [r3, #0]
 800256e:	685b      	ldr	r3, [r3, #4]
 8002570:	f423 4100 	bic.w	r1, r3, #32768	; 0x8000
 8002574:	687b      	ldr	r3, [r7, #4]
 8002576:	6b5a      	ldr	r2, [r3, #52]	; 0x34
 8002578:	687b      	ldr	r3, [r7, #4]
 800257a:	681b      	ldr	r3, [r3, #0]
 800257c:	430a      	orrs	r2, r1
 800257e:	605a      	str	r2, [r3, #4]
  }

  /* if required, configure RX overrun detection disabling */
  if (HAL_IS_BIT_SET(huart->AdvancedInit.AdvFeatureInit, UART_ADVFEATURE_RXOVERRUNDISABLE_INIT))
 8002580:	687b      	ldr	r3, [r7, #4]
 8002582:	6a5b      	ldr	r3, [r3, #36]	; 0x24
 8002584:	f003 0310 	and.w	r3, r3, #16
 8002588:	2b00      	cmp	r3, #0
 800258a:	d00a      	beq.n	80025a2 <UART_AdvFeatureConfig+0xb2>
  {
    assert_param(IS_UART_OVERRUN(huart->AdvancedInit.OverrunDisable));
    MODIFY_REG(huart->Instance->CR3, USART_CR3_OVRDIS, huart->AdvancedInit.OverrunDisable);
 800258c:	687b      	ldr	r3, [r7, #4]
 800258e:	681b      	ldr	r3, [r3, #0]
 8002590:	689b      	ldr	r3, [r3, #8]
 8002592:	f423 5180 	bic.w	r1, r3, #4096	; 0x1000
 8002596:	687b      	ldr	r3, [r7, #4]
 8002598:	6b9a      	ldr	r2, [r3, #56]	; 0x38
 800259a:	687b      	ldr	r3, [r7, #4]
 800259c:	681b      	ldr	r3, [r3, #0]
 800259e:	430a      	orrs	r2, r1
 80025a0:	609a      	str	r2, [r3, #8]
  }

  /* if required, configure DMA disabling on reception error */
  if (HAL_IS_BIT_SET(huart->AdvancedInit.AdvFeatureInit, UART_ADVFEATURE_DMADISABLEONERROR_INIT))
 80025a2:	687b      	ldr	r3, [r7, #4]
 80025a4:	6a5b      	ldr	r3, [r3, #36]	; 0x24
 80025a6:	f003 0320 	and.w	r3, r3, #32
 80025aa:	2b00      	cmp	r3, #0
 80025ac:	d00a      	beq.n	80025c4 <UART_AdvFeatureConfig+0xd4>
  {
    assert_param(IS_UART_ADVFEATURE_DMAONRXERROR(huart->AdvancedInit.DMADisableonRxError));
    MODIFY_REG(huart->Instance->CR3, USART_CR3_DDRE, huart->AdvancedInit.DMADisableonRxError);
 80025ae:	687b      	ldr	r3, [r7, #4]
 80025b0:	681b      	ldr	r3, [r3, #0]
 80025b2:	689b      	ldr	r3, [r3, #8]
 80025b4:	f423 5100 	bic.w	r1, r3, #8192	; 0x2000
 80025b8:	687b      	ldr	r3, [r7, #4]
 80025ba:	6bda      	ldr	r2, [r3, #60]	; 0x3c
 80025bc:	687b      	ldr	r3, [r7, #4]
 80025be:	681b      	ldr	r3, [r3, #0]
 80025c0:	430a      	orrs	r2, r1
 80025c2:	609a      	str	r2, [r3, #8]
  }

  /* if required, configure auto Baud rate detection scheme */
  if (HAL_IS_BIT_SET(huart->AdvancedInit.AdvFeatureInit, UART_ADVFEATURE_AUTOBAUDRATE_INIT))
 80025c4:	687b      	ldr	r3, [r7, #4]
 80025c6:	6a5b      	ldr	r3, [r3, #36]	; 0x24
 80025c8:	f003 0340 	and.w	r3, r3, #64	; 0x40
 80025cc:	2b00      	cmp	r3, #0
 80025ce:	d01a      	beq.n	8002606 <UART_AdvFeatureConfig+0x116>
  {
    assert_param(IS_USART_AUTOBAUDRATE_DETECTION_INSTANCE(huart->Instance));
    assert_param(IS_UART_ADVFEATURE_AUTOBAUDRATE(huart->AdvancedInit.AutoBaudRateEnable));
    MODIFY_REG(huart->Instance->CR2, USART_CR2_ABREN, huart->AdvancedInit.AutoBaudRateEnable);
 80025d0:	687b      	ldr	r3, [r7, #4]
 80025d2:	681b      	ldr	r3, [r3, #0]
 80025d4:	685b      	ldr	r3, [r3, #4]
 80025d6:	f423 1180 	bic.w	r1, r3, #1048576	; 0x100000
 80025da:	687b      	ldr	r3, [r7, #4]
 80025dc:	6c1a      	ldr	r2, [r3, #64]	; 0x40
 80025de:	687b      	ldr	r3, [r7, #4]
 80025e0:	681b      	ldr	r3, [r3, #0]
 80025e2:	430a      	orrs	r2, r1
 80025e4:	605a      	str	r2, [r3, #4]
    /* set auto Baudrate detection parameters if detection is enabled */
    if (huart->AdvancedInit.AutoBaudRateEnable == UART_ADVFEATURE_AUTOBAUDRATE_ENABLE)
 80025e6:	687b      	ldr	r3, [r7, #4]
 80025e8:	6c1b      	ldr	r3, [r3, #64]	; 0x40
 80025ea:	f5b3 1f80 	cmp.w	r3, #1048576	; 0x100000
 80025ee:	d10a      	bne.n	8002606 <UART_AdvFeatureConfig+0x116>
    {
      assert_param(IS_UART_ADVFEATURE_AUTOBAUDRATEMODE(huart->AdvancedInit.AutoBaudRateMode));
      MODIFY_REG(huart->Instance->CR2, USART_CR2_ABRMODE, huart->AdvancedInit.AutoBaudRateMode);
 80025f0:	687b      	ldr	r3, [r7, #4]
 80025f2:	681b      	ldr	r3, [r3, #0]
 80025f4:	685b      	ldr	r3, [r3, #4]
 80025f6:	f423 01c0 	bic.w	r1, r3, #6291456	; 0x600000
 80025fa:	687b      	ldr	r3, [r7, #4]
 80025fc:	6c5a      	ldr	r2, [r3, #68]	; 0x44
 80025fe:	687b      	ldr	r3, [r7, #4]
 8002600:	681b      	ldr	r3, [r3, #0]
 8002602:	430a      	orrs	r2, r1
 8002604:	605a      	str	r2, [r3, #4]
    }
  }

  /* if required, configure MSB first on communication line */
  if (HAL_IS_BIT_SET(huart->AdvancedInit.AdvFeatureInit, UART_ADVFEATURE_MSBFIRST_INIT))
 8002606:	687b      	ldr	r3, [r7, #4]
 8002608:	6a5b      	ldr	r3, [r3, #36]	; 0x24
 800260a:	f003 0380 	and.w	r3, r3, #128	; 0x80
 800260e:	2b00      	cmp	r3, #0
 8002610:	d00a      	beq.n	8002628 <UART_AdvFeatureConfig+0x138>
  {
    assert_param(IS_UART_ADVFEATURE_MSBFIRST(huart->AdvancedInit.MSBFirst));
    MODIFY_REG(huart->Instance->CR2, USART_CR2_MSBFIRST, huart->AdvancedInit.MSBFirst);
 8002612:	687b      	ldr	r3, [r7, #4]
 8002614:	681b      	ldr	r3, [r3, #0]
 8002616:	685b      	ldr	r3, [r3, #4]
 8002618:	f423 2100 	bic.w	r1, r3, #524288	; 0x80000
 800261c:	687b      	ldr	r3, [r7, #4]
 800261e:	6c9a      	ldr	r2, [r3, #72]	; 0x48
 8002620:	687b      	ldr	r3, [r7, #4]
 8002622:	681b      	ldr	r3, [r3, #0]
 8002624:	430a      	orrs	r2, r1
 8002626:	605a      	str	r2, [r3, #4]
  }
}
 8002628:	bf00      	nop
 800262a:	370c      	adds	r7, #12
 800262c:	46bd      	mov	sp, r7
 800262e:	f85d 7b04 	ldr.w	r7, [sp], #4
 8002632:	4770      	bx	lr

08002634 <UART_CheckIdleState>:
  * @brief Check the UART Idle State.
  * @param huart UART handle.
  * @retval HAL status
  */
HAL_StatusTypeDef UART_CheckIdleState(UART_HandleTypeDef *huart)
{
 8002634:	b580      	push	{r7, lr}
 8002636:	b086      	sub	sp, #24
 8002638:	af02      	add	r7, sp, #8
 800263a:	6078      	str	r0, [r7, #4]
  uint32_t tickstart;

  /* Initialize the UART ErrorCode */
  huart->ErrorCode = HAL_UART_ERROR_NONE;
 800263c:	687b      	ldr	r3, [r7, #4]
 800263e:	2200      	movs	r2, #0
 8002640:	f8c3 2080 	str.w	r2, [r3, #128]	; 0x80

  /* Init tickstart for timeout management */
  tickstart = HAL_GetTick();
 8002644:	f7fe f982 	bl	800094c <HAL_GetTick>
 8002648:	60f8      	str	r0, [r7, #12]

  /* Check if the Transmitter is enabled */
  if ((huart->Instance->CR1 & USART_CR1_TE) == USART_CR1_TE)
 800264a:	687b      	ldr	r3, [r7, #4]
 800264c:	681b      	ldr	r3, [r3, #0]
 800264e:	681b      	ldr	r3, [r3, #0]
 8002650:	f003 0308 	and.w	r3, r3, #8
 8002654:	2b08      	cmp	r3, #8
 8002656:	d10e      	bne.n	8002676 <UART_CheckIdleState+0x42>
  {
    /* Wait until TEACK flag is set */
    if (UART_WaitOnFlagUntilTimeout(huart, USART_ISR_TEACK, RESET, tickstart, HAL_UART_TIMEOUT_VALUE) != HAL_OK)
 8002658:	f06f 437e 	mvn.w	r3, #4261412864	; 0xfe000000
 800265c:	9300      	str	r3, [sp, #0]
 800265e:	68fb      	ldr	r3, [r7, #12]
 8002660:	2200      	movs	r2, #0
 8002662:	f44f 1100 	mov.w	r1, #2097152	; 0x200000
 8002666:	6878      	ldr	r0, [r7, #4]
 8002668:	f000 f82d 	bl	80026c6 <UART_WaitOnFlagUntilTimeout>
 800266c:	4603      	mov	r3, r0
 800266e:	2b00      	cmp	r3, #0
 8002670:	d001      	beq.n	8002676 <UART_CheckIdleState+0x42>
    {
      /* Timeout occurred */
      return HAL_TIMEOUT;
 8002672:	2303      	movs	r3, #3
 8002674:	e023      	b.n	80026be <UART_CheckIdleState+0x8a>
    }
  }

  /* Check if the Receiver is enabled */
  if ((huart->Instance->CR1 & USART_CR1_RE) == USART_CR1_RE)
 8002676:	687b      	ldr	r3, [r7, #4]
 8002678:	681b      	ldr	r3, [r3, #0]
 800267a:	681b      	ldr	r3, [r3, #0]
 800267c:	f003 0304 	and.w	r3, r3, #4
 8002680:	2b04      	cmp	r3, #4
 8002682:	d10e      	bne.n	80026a2 <UART_CheckIdleState+0x6e>
  {
    /* Wait until REACK flag is set */
    if (UART_WaitOnFlagUntilTimeout(huart, USART_ISR_REACK, RESET, tickstart, HAL_UART_TIMEOUT_VALUE) != HAL_OK)
 8002684:	f06f 437e 	mvn.w	r3, #4261412864	; 0xfe000000
 8002688:	9300      	str	r3, [sp, #0]
 800268a:	68fb      	ldr	r3, [r7, #12]
 800268c:	2200      	movs	r2, #0
 800268e:	f44f 0180 	mov.w	r1, #4194304	; 0x400000
 8002692:	6878      	ldr	r0, [r7, #4]
 8002694:	f000 f817 	bl	80026c6 <UART_WaitOnFlagUntilTimeout>
 8002698:	4603      	mov	r3, r0
 800269a:	2b00      	cmp	r3, #0
 800269c:	d001      	beq.n	80026a2 <UART_CheckIdleState+0x6e>
    {
      /* Timeout occurred */
      return HAL_TIMEOUT;
 800269e:	2303      	movs	r3, #3
 80026a0:	e00d      	b.n	80026be <UART_CheckIdleState+0x8a>
    }
  }

  /* Initialize the UART State */
  huart->gState = HAL_UART_STATE_READY;
 80026a2:	687b      	ldr	r3, [r7, #4]
 80026a4:	2220      	movs	r2, #32
 80026a6:	679a      	str	r2, [r3, #120]	; 0x78
  huart->RxState = HAL_UART_STATE_READY;
 80026a8:	687b      	ldr	r3, [r7, #4]
 80026aa:	2220      	movs	r2, #32
 80026ac:	67da      	str	r2, [r3, #124]	; 0x7c
  huart->ReceptionType = HAL_UART_RECEPTION_STANDARD;
 80026ae:	687b      	ldr	r3, [r7, #4]
 80026b0:	2200      	movs	r2, #0
 80026b2:	661a      	str	r2, [r3, #96]	; 0x60

  __HAL_UNLOCK(huart);
 80026b4:	687b      	ldr	r3, [r7, #4]
 80026b6:	2200      	movs	r2, #0
 80026b8:	f883 2074 	strb.w	r2, [r3, #116]	; 0x74

  return HAL_OK;
 80026bc:	2300      	movs	r3, #0
}
 80026be:	4618      	mov	r0, r3
 80026c0:	3710      	adds	r7, #16
 80026c2:	46bd      	mov	sp, r7
 80026c4:	bd80      	pop	{r7, pc}

080026c6 <UART_WaitOnFlagUntilTimeout>:
  * @param Timeout   Timeout duration
  * @retval HAL status
  */
HAL_StatusTypeDef UART_WaitOnFlagUntilTimeout(UART_HandleTypeDef *huart, uint32_t Flag, FlagStatus Status,
                                              uint32_t Tickstart, uint32_t Timeout)
{
 80026c6:	b580      	push	{r7, lr}
 80026c8:	b09c      	sub	sp, #112	; 0x70
 80026ca:	af00      	add	r7, sp, #0
 80026cc:	60f8      	str	r0, [r7, #12]
 80026ce:	60b9      	str	r1, [r7, #8]
 80026d0:	603b      	str	r3, [r7, #0]
 80026d2:	4613      	mov	r3, r2
 80026d4:	71fb      	strb	r3, [r7, #7]
  /* Wait until flag is set */
  while ((__HAL_UART_GET_FLAG(huart, Flag) ? SET : RESET) == Status)
 80026d6:	e0a5      	b.n	8002824 <UART_WaitOnFlagUntilTimeout+0x15e>
  {
    /* Check for the Timeout */
    if (Timeout != HAL_MAX_DELAY)
 80026d8:	6fbb      	ldr	r3, [r7, #120]	; 0x78
 80026da:	f1b3 3fff 	cmp.w	r3, #4294967295
 80026de:	f000 80a1 	beq.w	8002824 <UART_WaitOnFlagUntilTimeout+0x15e>
    {
      if (((HAL_GetTick() - Tickstart) > Timeout) || (Timeout == 0U))
 80026e2:	f7fe f933 	bl	800094c <HAL_GetTick>
 80026e6:	4602      	mov	r2, r0
 80026e8:	683b      	ldr	r3, [r7, #0]
 80026ea:	1ad3      	subs	r3, r2, r3
 80026ec:	6fba      	ldr	r2, [r7, #120]	; 0x78
 80026ee:	429a      	cmp	r2, r3
 80026f0:	d302      	bcc.n	80026f8 <UART_WaitOnFlagUntilTimeout+0x32>
 80026f2:	6fbb      	ldr	r3, [r7, #120]	; 0x78
 80026f4:	2b00      	cmp	r3, #0
 80026f6:	d13e      	bne.n	8002776 <UART_WaitOnFlagUntilTimeout+0xb0>
           interrupts for the interrupt process */
#if defined(USART_CR1_FIFOEN)
        ATOMIC_CLEAR_BIT(huart->Instance->CR1, (USART_CR1_RXNEIE_RXFNEIE | USART_CR1_PEIE |
                                                USART_CR1_TXEIE_TXFNFIE));
#else
        ATOMIC_CLEAR_BIT(huart->Instance->CR1, (USART_CR1_RXNEIE | USART_CR1_PEIE | USART_CR1_TXEIE));
 80026f8:	68fb      	ldr	r3, [r7, #12]
 80026fa:	681b      	ldr	r3, [r3, #0]
 80026fc:	653b      	str	r3, [r7, #80]	; 0x50
 */
__STATIC_FORCEINLINE uint32_t __LDREXW(volatile uint32_t *addr)
{
    uint32_t result;

   __ASM volatile ("ldrex %0, %1" : "=r" (result) : "Q" (*addr) );
 80026fe:	6d3b      	ldr	r3, [r7, #80]	; 0x50
 8002700:	e853 3f00 	ldrex	r3, [r3]
 8002704:	64fb      	str	r3, [r7, #76]	; 0x4c
   return(result);
 8002706:	6cfb      	ldr	r3, [r7, #76]	; 0x4c
 8002708:	f423 73d0 	bic.w	r3, r3, #416	; 0x1a0
 800270c:	667b      	str	r3, [r7, #100]	; 0x64
 800270e:	68fb      	ldr	r3, [r7, #12]
 8002710:	681b      	ldr	r3, [r3, #0]
 8002712:	461a      	mov	r2, r3
 8002714:	6e7b      	ldr	r3, [r7, #100]	; 0x64
 8002716:	65fb      	str	r3, [r7, #92]	; 0x5c
 8002718:	65ba      	str	r2, [r7, #88]	; 0x58
 */
__STATIC_FORCEINLINE uint32_t __STREXW(uint32_t value, volatile uint32_t *addr)
{
   uint32_t result;

   __ASM volatile ("strex %0, %2, %1" : "=&r" (result), "=Q" (*addr) : "r" (value) );
 800271a:	6db9      	ldr	r1, [r7, #88]	; 0x58
 800271c:	6dfa      	ldr	r2, [r7, #92]	; 0x5c
 800271e:	e841 2300 	strex	r3, r2, [r1]
 8002722:	657b      	str	r3, [r7, #84]	; 0x54
   return(result);
 8002724:	6d7b      	ldr	r3, [r7, #84]	; 0x54
 8002726:	2b00      	cmp	r3, #0
 8002728:	d1e6      	bne.n	80026f8 <UART_WaitOnFlagUntilTimeout+0x32>
#endif /* USART_CR1_FIFOEN */
        ATOMIC_CLEAR_BIT(huart->Instance->CR3, USART_CR3_EIE);
 800272a:	68fb      	ldr	r3, [r7, #12]
 800272c:	681b      	ldr	r3, [r3, #0]
 800272e:	3308      	adds	r3, #8
 8002730:	63fb      	str	r3, [r7, #60]	; 0x3c
   __ASM volatile ("ldrex %0, %1" : "=r" (result) : "Q" (*addr) );
 8002732:	6bfb      	ldr	r3, [r7, #60]	; 0x3c
 8002734:	e853 3f00 	ldrex	r3, [r3]
 8002738:	63bb      	str	r3, [r7, #56]	; 0x38
   return(result);
 800273a:	6bbb      	ldr	r3, [r7, #56]	; 0x38
 800273c:	f023 0301 	bic.w	r3, r3, #1
 8002740:	663b      	str	r3, [r7, #96]	; 0x60
 8002742:	68fb      	ldr	r3, [r7, #12]
 8002744:	681b      	ldr	r3, [r3, #0]
 8002746:	3308      	adds	r3, #8
 8002748:	6e3a      	ldr	r2, [r7, #96]	; 0x60
 800274a:	64ba      	str	r2, [r7, #72]	; 0x48
 800274c:	647b      	str	r3, [r7, #68]	; 0x44
   __ASM volatile ("strex %0, %2, %1" : "=&r" (result), "=Q" (*addr) : "r" (value) );
 800274e:	6c79      	ldr	r1, [r7, #68]	; 0x44
 8002750:	6cba      	ldr	r2, [r7, #72]	; 0x48
 8002752:	e841 2300 	strex	r3, r2, [r1]
 8002756:	643b      	str	r3, [r7, #64]	; 0x40
   return(result);
 8002758:	6c3b      	ldr	r3, [r7, #64]	; 0x40
 800275a:	2b00      	cmp	r3, #0
 800275c:	d1e5      	bne.n	800272a <UART_WaitOnFlagUntilTimeout+0x64>

        huart->gState = HAL_UART_STATE_READY;
 800275e:	68fb      	ldr	r3, [r7, #12]
 8002760:	2220      	movs	r2, #32
 8002762:	679a      	str	r2, [r3, #120]	; 0x78
        huart->RxState = HAL_UART_STATE_READY;
 8002764:	68fb      	ldr	r3, [r7, #12]
 8002766:	2220      	movs	r2, #32
 8002768:	67da      	str	r2, [r3, #124]	; 0x7c

        __HAL_UNLOCK(huart);
 800276a:	68fb      	ldr	r3, [r7, #12]
 800276c:	2200      	movs	r2, #0
 800276e:	f883 2074 	strb.w	r2, [r3, #116]	; 0x74

        return HAL_TIMEOUT;
 8002772:	2303      	movs	r3, #3
 8002774:	e067      	b.n	8002846 <UART_WaitOnFlagUntilTimeout+0x180>
      }

      if (READ_BIT(huart->Instance->CR1, USART_CR1_RE) != 0U)
 8002776:	68fb      	ldr	r3, [r7, #12]
 8002778:	681b      	ldr	r3, [r3, #0]
 800277a:	681b      	ldr	r3, [r3, #0]
 800277c:	f003 0304 	and.w	r3, r3, #4
 8002780:	2b00      	cmp	r3, #0
 8002782:	d04f      	beq.n	8002824 <UART_WaitOnFlagUntilTimeout+0x15e>
      {
        if (__HAL_UART_GET_FLAG(huart, UART_FLAG_RTOF) == SET)
 8002784:	68fb      	ldr	r3, [r7, #12]
 8002786:	681b      	ldr	r3, [r3, #0]
 8002788:	69db      	ldr	r3, [r3, #28]
 800278a:	f403 6300 	and.w	r3, r3, #2048	; 0x800
 800278e:	f5b3 6f00 	cmp.w	r3, #2048	; 0x800
 8002792:	d147      	bne.n	8002824 <UART_WaitOnFlagUntilTimeout+0x15e>
        {
          /* Clear Receiver Timeout flag*/
          __HAL_UART_CLEAR_FLAG(huart, UART_CLEAR_RTOF);
 8002794:	68fb      	ldr	r3, [r7, #12]
 8002796:	681b      	ldr	r3, [r3, #0]
 8002798:	f44f 6200 	mov.w	r2, #2048	; 0x800
 800279c:	621a      	str	r2, [r3, #32]
             interrupts for the interrupt process */
#if defined(USART_CR1_FIFOEN)
          ATOMIC_CLEAR_BIT(huart->Instance->CR1, (USART_CR1_RXNEIE_RXFNEIE | USART_CR1_PEIE |
                                                  USART_CR1_TXEIE_TXFNFIE));
#else
          ATOMIC_CLEAR_BIT(huart->Instance->CR1, (USART_CR1_RXNEIE | USART_CR1_PEIE | USART_CR1_TXEIE));
 800279e:	68fb      	ldr	r3, [r7, #12]
 80027a0:	681b      	ldr	r3, [r3, #0]
 80027a2:	62bb      	str	r3, [r7, #40]	; 0x28
   __ASM volatile ("ldrex %0, %1" : "=r" (result) : "Q" (*addr) );
 80027a4:	6abb      	ldr	r3, [r7, #40]	; 0x28
 80027a6:	e853 3f00 	ldrex	r3, [r3]
 80027aa:	627b      	str	r3, [r7, #36]	; 0x24
   return(result);
 80027ac:	6a7b      	ldr	r3, [r7, #36]	; 0x24
 80027ae:	f423 73d0 	bic.w	r3, r3, #416	; 0x1a0
 80027b2:	66fb      	str	r3, [r7, #108]	; 0x6c
 80027b4:	68fb      	ldr	r3, [r7, #12]
 80027b6:	681b      	ldr	r3, [r3, #0]
 80027b8:	461a      	mov	r2, r3
 80027ba:	6efb      	ldr	r3, [r7, #108]	; 0x6c
 80027bc:	637b      	str	r3, [r7, #52]	; 0x34
 80027be:	633a      	str	r2, [r7, #48]	; 0x30
   __ASM volatile ("strex %0, %2, %1" : "=&r" (result), "=Q" (*addr) : "r" (value) );
 80027c0:	6b39      	ldr	r1, [r7, #48]	; 0x30
 80027c2:	6b7a      	ldr	r2, [r7, #52]	; 0x34
 80027c4:	e841 2300 	strex	r3, r2, [r1]
 80027c8:	62fb      	str	r3, [r7, #44]	; 0x2c
   return(result);
 80027ca:	6afb      	ldr	r3, [r7, #44]	; 0x2c
 80027cc:	2b00      	cmp	r3, #0
 80027ce:	d1e6      	bne.n	800279e <UART_WaitOnFlagUntilTimeout+0xd8>
#endif /* USART_CR1_FIFOEN */
          ATOMIC_CLEAR_BIT(huart->Instance->CR3, USART_CR3_EIE);
 80027d0:	68fb      	ldr	r3, [r7, #12]
 80027d2:	681b      	ldr	r3, [r3, #0]
 80027d4:	3308      	adds	r3, #8
 80027d6:	617b      	str	r3, [r7, #20]
   __ASM volatile ("ldrex %0, %1" : "=r" (result) : "Q" (*addr) );
 80027d8:	697b      	ldr	r3, [r7, #20]
 80027da:	e853 3f00 	ldrex	r3, [r3]
 80027de:	613b      	str	r3, [r7, #16]
   return(result);
 80027e0:	693b      	ldr	r3, [r7, #16]
 80027e2:	f023 0301 	bic.w	r3, r3, #1
 80027e6:	66bb      	str	r3, [r7, #104]	; 0x68
 80027e8:	68fb      	ldr	r3, [r7, #12]
 80027ea:	681b      	ldr	r3, [r3, #0]
 80027ec:	3308      	adds	r3, #8
 80027ee:	6eba      	ldr	r2, [r7, #104]	; 0x68
 80027f0:	623a      	str	r2, [r7, #32]
 80027f2:	61fb      	str	r3, [r7, #28]
   __ASM volatile ("strex %0, %2, %1" : "=&r" (result), "=Q" (*addr) : "r" (value) );
 80027f4:	69f9      	ldr	r1, [r7, #28]
 80027f6:	6a3a      	ldr	r2, [r7, #32]
 80027f8:	e841 2300 	strex	r3, r2, [r1]
 80027fc:	61bb      	str	r3, [r7, #24]
   return(result);
 80027fe:	69bb      	ldr	r3, [r7, #24]
 8002800:	2b00      	cmp	r3, #0
 8002802:	d1e5      	bne.n	80027d0 <UART_WaitOnFlagUntilTimeout+0x10a>

          huart->gState = HAL_UART_STATE_READY;
 8002804:	68fb      	ldr	r3, [r7, #12]
 8002806:	2220      	movs	r2, #32
 8002808:	679a      	str	r2, [r3, #120]	; 0x78
          huart->RxState = HAL_UART_STATE_READY;
 800280a:	68fb      	ldr	r3, [r7, #12]
 800280c:	2220      	movs	r2, #32
 800280e:	67da      	str	r2, [r3, #124]	; 0x7c
          huart->ErrorCode = HAL_UART_ERROR_RTO;
 8002810:	68fb      	ldr	r3, [r7, #12]
 8002812:	2220      	movs	r2, #32
 8002814:	f8c3 2080 	str.w	r2, [r3, #128]	; 0x80

          /* Process Unlocked */
          __HAL_UNLOCK(huart);
 8002818:	68fb      	ldr	r3, [r7, #12]
 800281a:	2200      	movs	r2, #0
 800281c:	f883 2074 	strb.w	r2, [r3, #116]	; 0x74

          return HAL_TIMEOUT;
 8002820:	2303      	movs	r3, #3
 8002822:	e010      	b.n	8002846 <UART_WaitOnFlagUntilTimeout+0x180>
  while ((__HAL_UART_GET_FLAG(huart, Flag) ? SET : RESET) == Status)
 8002824:	68fb      	ldr	r3, [r7, #12]
 8002826:	681b      	ldr	r3, [r3, #0]
 8002828:	69da      	ldr	r2, [r3, #28]
 800282a:	68bb      	ldr	r3, [r7, #8]
 800282c:	4013      	ands	r3, r2
 800282e:	68ba      	ldr	r2, [r7, #8]
 8002830:	429a      	cmp	r2, r3
 8002832:	bf0c      	ite	eq
 8002834:	2301      	moveq	r3, #1
 8002836:	2300      	movne	r3, #0
 8002838:	b2db      	uxtb	r3, r3
 800283a:	461a      	mov	r2, r3
 800283c:	79fb      	ldrb	r3, [r7, #7]
 800283e:	429a      	cmp	r2, r3
 8002840:	f43f af4a 	beq.w	80026d8 <UART_WaitOnFlagUntilTimeout+0x12>
        }
      }
    }
  }
  return HAL_OK;
 8002844:	2300      	movs	r3, #0
}
 8002846:	4618      	mov	r0, r3
 8002848:	3770      	adds	r7, #112	; 0x70
 800284a:	46bd      	mov	sp, r7
 800284c:	bd80      	pop	{r7, pc}
	...

08002850 <__libc_init_array>:
 8002850:	b570      	push	{r4, r5, r6, lr}
 8002852:	4d0d      	ldr	r5, [pc, #52]	; (8002888 <__libc_init_array+0x38>)
 8002854:	4c0d      	ldr	r4, [pc, #52]	; (800288c <__libc_init_array+0x3c>)
 8002856:	1b64      	subs	r4, r4, r5
 8002858:	10a4      	asrs	r4, r4, #2
 800285a:	2600      	movs	r6, #0
 800285c:	42a6      	cmp	r6, r4
 800285e:	d109      	bne.n	8002874 <__libc_init_array+0x24>
 8002860:	4d0b      	ldr	r5, [pc, #44]	; (8002890 <__libc_init_array+0x40>)
 8002862:	4c0c      	ldr	r4, [pc, #48]	; (8002894 <__libc_init_array+0x44>)
 8002864:	f000 f820 	bl	80028a8 <_init>
 8002868:	1b64      	subs	r4, r4, r5
 800286a:	10a4      	asrs	r4, r4, #2
 800286c:	2600      	movs	r6, #0
 800286e:	42a6      	cmp	r6, r4
 8002870:	d105      	bne.n	800287e <__libc_init_array+0x2e>
 8002872:	bd70      	pop	{r4, r5, r6, pc}
 8002874:	f855 3b04 	ldr.w	r3, [r5], #4
 8002878:	4798      	blx	r3
 800287a:	3601      	adds	r6, #1
 800287c:	e7ee      	b.n	800285c <__libc_init_array+0xc>
 800287e:	f855 3b04 	ldr.w	r3, [r5], #4
 8002882:	4798      	blx	r3
 8002884:	3601      	adds	r6, #1
 8002886:	e7f2      	b.n	800286e <__libc_init_array+0x1e>
 8002888:	08002910 	.word	0x08002910
 800288c:	08002910 	.word	0x08002910
 8002890:	08002910 	.word	0x08002910
 8002894:	08002914 	.word	0x08002914

08002898 <memset>:
 8002898:	4402      	add	r2, r0
 800289a:	4603      	mov	r3, r0
 800289c:	4293      	cmp	r3, r2
 800289e:	d100      	bne.n	80028a2 <memset+0xa>
 80028a0:	4770      	bx	lr
 80028a2:	f803 1b01 	strb.w	r1, [r3], #1
 80028a6:	e7f9      	b.n	800289c <memset+0x4>

080028a8 <_init>:
 80028a8:	b5f8      	push	{r3, r4, r5, r6, r7, lr}
 80028aa:	bf00      	nop
 80028ac:	bcf8      	pop	{r3, r4, r5, r6, r7}
 80028ae:	bc08      	pop	{r3}
 80028b0:	469e      	mov	lr, r3
 80028b2:	4770      	bx	lr

080028b4 <_fini>:
 80028b4:	b5f8      	push	{r3, r4, r5, r6, r7, lr}
 80028b6:	bf00      	nop
 80028b8:	bcf8      	pop	{r3, r4, r5, r6, r7}
 80028ba:	bc08      	pop	{r3}
 80028bc:	469e      	mov	lr, r3
 80028be:	4770      	bx	lr
